
system：     文件格式 elf32-i386


Disassembly of section .text:

00000000 <pg_dir>:
.text
.globl idt,gdt,pg_dir,tmp_floppy_area
pg_dir:
.globl startup_32
startup_32:
	movl $0x10,%eax
       0:	b8 10 00 00 00       	mov    $0x10,%eax
	mov %ax,%ds
       5:	8e d8                	mov    %eax,%ds
	mov %ax,%es
       7:	8e c0                	mov    %eax,%es
	mov %ax,%fs
       9:	8e e0                	mov    %eax,%fs
	mov %ax,%gs
       b:	8e e8                	mov    %eax,%gs
	lss stack_start,%esp
       d:	0f b2 25 40 bd 01 00 	lss    0x1bd40,%esp
	call setup_idt
      14:	e8 58 00 00 00       	call   71 <setup_idt>
	call setup_gdt
      19:	e8 83 00 00 00       	call   a1 <setup_gdt>
	movl $0x10,%eax		# reload all the segment registers
      1e:	b8 10 00 00 00       	mov    $0x10,%eax
	mov %ax,%ds		# after changing gdt. CS was already
      23:	8e d8                	mov    %eax,%ds
	mov %ax,%es		# reloaded in 'setup_gdt'
      25:	8e c0                	mov    %eax,%es
	mov %ax,%fs
      27:	8e e0                	mov    %eax,%fs
	mov %ax,%gs
      29:	8e e8                	mov    %eax,%gs
	lss stack_start,%esp
      2b:	0f b2 25 40 bd 01 00 	lss    0x1bd40,%esp
	xorl %eax,%eax
      32:	31 c0                	xor    %eax,%eax
1:	incl %eax		# check that A20 really IS enabled
      34:	40                   	inc    %eax
	movl %eax,0x000000	# loop forever if it isn't
      35:	a3 00 00 00 00       	mov    %eax,0x0
	cmpl %eax,0x100000
      3a:	39 05 00 00 10 00    	cmp    %eax,0x100000
	je 1b
      40:	74 f2                	je     34 <OLDSS+0x8>
 * NOTE! 486 should set bit 16, to check for write-protect in supervisor
 * mode. Then it would be unnecessary with the "verify_area()"-calls.
 * 486 users probably want to set the NE (#5) bit also, so as to use
 * int 16 for math errors.
 */
	movl %cr0,%eax		# check math chip
      42:	0f 20 c0             	mov    %cr0,%eax
	andl $0x80000011,%eax	# Save PG,PE,ET
      45:	25 11 00 00 80       	and    $0x80000011,%eax
/* "orl $0x10020,%eax" here for 486 might be good */
	orl $2,%eax		# set MP
      4a:	83 c8 02             	or     $0x2,%eax
	movl %eax,%cr0
      4d:	0f 22 c0             	mov    %eax,%cr0
	call check_x87
      50:	e8 05 00 00 00       	call   5a <check_x87>
	jmp after_page_tables
      55:	e9 a6 53 00 00       	jmp    5400 <after_page_tables>

0000005a <check_x87>:

/*
 * We depend on ET to be correct. This checks for 287/387.
 */
check_x87:
	fninit
      5a:	db e3                	fninit 
	fstsw %ax
      5c:	9b df e0             	fstsw  %ax
	cmpb $0,%al
      5f:	3c 00                	cmp    $0x0,%al
	je 1f			/* no coprocessor: have to set bits */
      61:	74 0b                	je     6e <check_x87+0x14>
	movl %cr0,%eax
      63:	0f 20 c0             	mov    %cr0,%eax
	xorl $6,%eax		/* reset MP, set EM */
      66:	83 f0 06             	xor    $0x6,%eax
	movl %eax,%cr0
      69:	0f 22 c0             	mov    %eax,%cr0
	ret
      6c:	c3                   	ret    
      6d:	90                   	nop
      6e:	db e4                	fnsetpm(287 only) 
.align 2
1:	.byte 0xDB,0xE4		/* fsetpm for 287, ignored by 387 */
	ret
      70:	c3                   	ret    

00000071 <setup_idt>:
 *  are enabled elsewhere, when we can be relatively
 *  sure everything is ok. This routine will be over-
 *  written by the page tables.
 */
setup_idt:
	lea ignore_int,%edx
      71:	8d 15 28 54 00 00    	lea    0x5428,%edx
	movl $0x00080000,%eax
      77:	b8 00 00 08 00       	mov    $0x80000,%eax
	movw %dx,%ax		/* selector = 0x0008 = cs */
      7c:	66 89 d0             	mov    %dx,%ax
	movw $0x8E00,%dx	/* interrupt gate - dpl=0, present */
      7f:	66 ba 00 8e          	mov    $0x8e00,%dx

	lea idt,%edi
      83:	8d 3d b8 54 00 00    	lea    0x54b8,%edi
	mov $256,%ecx
      89:	b9 00 01 00 00       	mov    $0x100,%ecx

0000008e <rp_sidt>:
rp_sidt:
	movl %eax,(%edi)
      8e:	89 07                	mov    %eax,(%edi)
	movl %edx,4(%edi)
      90:	89 57 04             	mov    %edx,0x4(%edi)
	addl $8,%edi
      93:	83 c7 08             	add    $0x8,%edi
	dec %ecx
      96:	49                   	dec    %ecx
	jne rp_sidt
      97:	75 f5                	jne    8e <rp_sidt>
	lidt idt_descr
      99:	0f 01 1d a8 54 00 00 	lidtl  0x54a8
	ret
      a0:	c3                   	ret    

000000a1 <setup_gdt>:
 *  is VERY complicated at two whole lines, so this
 *  rather long comment is certainly needed :-).
 *  This routine will beoverwritten by the page tables.
 */
setup_gdt:
	lgdt gdt_descr
      a1:	0f 01 15 b0 54 00 00 	lgdtl  0x54b0
	ret
      a8:	c3                   	ret    
	...

00001000 <pg0>:
	...

00002000 <pg1>:
	...

00003000 <pg2>:
	...

00004000 <pg3>:
	...

00005000 <tmp_floppy_area>:
	...

00005400 <after_page_tables>:
 */
tmp_floppy_area:
	.fill 1024,1,0

after_page_tables:
	pushl $0		# These are the parameters to main :-)
    5400:	6a 00                	push   $0x0
	pushl $0
    5402:	6a 00                	push   $0x0
	pushl $0
    5404:	6a 00                	push   $0x0
	pushl $L6		# return address for main, if it decides to.
    5406:	68 12 54 00 00       	push   $0x5412
	pushl $main
    540b:	68 84 66 00 00       	push   $0x6684
	jmp setup_paging
    5410:	eb 3c                	jmp    544e <setup_paging>

00005412 <L6>:
L6:
	jmp L6			# main should never return here, but
    5412:	eb fe                	jmp    5412 <L6>

00005414 <int_msg>:
    5414:	55                   	push   %ebp
    5415:	6e                   	outsb  %ds:(%esi),(%dx)
    5416:	6b 6e 6f 77          	imul   $0x77,0x6f(%esi),%ebp
    541a:	6e                   	outsb  %ds:(%esi),(%dx)
    541b:	20 69 6e             	and    %ch,0x6e(%ecx)
    541e:	74 65                	je     5485 <setup_paging+0x37>
    5420:	72 72                	jb     5494 <setup_paging+0x46>
    5422:	75 70                	jne    5494 <setup_paging+0x46>
    5424:	74 0a                	je     5430 <ignore_int+0x8>
    5426:	0d                   	.byte 0xd
	...

00005428 <ignore_int>:
/* This is the default interrupt "handler" :-) */
int_msg:
	.asciz "Unknown interrupt\n\r"
.align 2
ignore_int:
	pushl %eax
    5428:	50                   	push   %eax
	pushl %ecx
    5429:	51                   	push   %ecx
	pushl %edx
    542a:	52                   	push   %edx
	push %ds
    542b:	1e                   	push   %ds
	push %es
    542c:	06                   	push   %es
	push %fs
    542d:	0f a0                	push   %fs
	movl $0x10,%eax
    542f:	b8 10 00 00 00       	mov    $0x10,%eax
	mov %ax,%ds
    5434:	8e d8                	mov    %eax,%ds
	mov %ax,%es
    5436:	8e c0                	mov    %eax,%es
	mov %ax,%fs
    5438:	8e e0                	mov    %eax,%fs
	pushl $int_msg
    543a:	68 14 54 00 00       	push   $0x5414
	call printk
    543f:	e8 0f 2f 00 00       	call   8353 <printk>
	popl %eax
    5444:	58                   	pop    %eax
	pop %fs
    5445:	0f a1                	pop    %fs
	pop %es
    5447:	07                   	pop    %es
	pop %ds
    5448:	1f                   	pop    %ds
	popl %edx
    5449:	5a                   	pop    %edx
	popl %ecx
    544a:	59                   	pop    %ecx
	popl %eax
    544b:	58                   	pop    %eax
	iret
    544c:	cf                   	iret   
    544d:	90                   	nop

0000544e <setup_paging>:
 * some kind of marker at them (search for "16Mb"), but I
 * won't guarantee that's all :-( )
 */
.align 2
setup_paging:
	movl $1024*5,%ecx		/* 5 pages - pg_dir+4 page tables */
    544e:	b9 00 14 00 00       	mov    $0x1400,%ecx
	xorl %eax,%eax
    5453:	31 c0                	xor    %eax,%eax
	xorl %edi,%edi			/* pg_dir is at 0x000 */
    5455:	31 ff                	xor    %edi,%edi
	cld;rep;stosl
    5457:	fc                   	cld    
    5458:	f3 ab                	rep stos %eax,%es:(%edi)
	movl $pg0+7,pg_dir		/* set present bit/user r/w */
    545a:	c7 05 00 00 00 00 07 	movl   $0x1007,0x0
    5461:	10 00 00 
	movl $pg1+7,pg_dir+4		/*  --------- " " --------- */
    5464:	c7 05 04 00 00 00 07 	movl   $0x2007,0x4
    546b:	20 00 00 
	movl $pg2+7,pg_dir+8		/*  --------- " " --------- */
    546e:	c7 05 08 00 00 00 07 	movl   $0x3007,0x8
    5475:	30 00 00 
	movl $pg3+7,pg_dir+12		/*  --------- " " --------- */
    5478:	c7 05 0c 00 00 00 07 	movl   $0x4007,0xc
    547f:	40 00 00 
	movl $pg3+4092,%edi
    5482:	bf fc 4f 00 00       	mov    $0x4ffc,%edi
	movl $0xfff007,%eax		/*  16Mb - 4096 + 7 (r/w user,p) */
    5487:	b8 07 f0 ff 00       	mov    $0xfff007,%eax
	std
    548c:	fd                   	std    
1:	stosl			/* fill pages backwards - more efficient :-) */
    548d:	ab                   	stos   %eax,%es:(%edi)
	subl $0x1000,%eax
    548e:	2d 00 10 00 00       	sub    $0x1000,%eax
	jge 1b
    5493:	7d f8                	jge    548d <setup_paging+0x3f>
	xorl %eax,%eax		/* pg_dir is at 0x0000 */
    5495:	31 c0                	xor    %eax,%eax
	movl %eax,%cr3		/* cr3 - page directory start */
    5497:	0f 22 d8             	mov    %eax,%cr3
	movl %cr0,%eax
    549a:	0f 20 c0             	mov    %cr0,%eax
	orl $0x80000000,%eax
    549d:	0d 00 00 00 80       	or     $0x80000000,%eax
	movl %eax,%cr0		/* set paging (PG) bit */
    54a2:	0f 22 c0             	mov    %eax,%cr0
	ret			/* this also flushes prefetch-queue */
    54a5:	c3                   	ret    
	...

000054a8 <idt_descr>:
    54a8:	ff 07                	incl   (%edi)
    54aa:	b8 54 00 00 00       	mov    $0x54,%eax
	...

000054b0 <gdt_descr>:
    54b0:	ff 07                	incl   (%edi)
    54b2:	b8 5c 00 00 66       	mov    $0x6600005c,%eax
    54b7:	90                   	nop

000054b8 <idt>:
	...

00005cb8 <gdt>:
	...
    5cc0:	ff 0f                	decl   (%edi)
    5cc2:	00 00                	add    %al,(%eax)
    5cc4:	00 9a c0 00 ff 0f    	add    %bl,0xfff00c0(%edx)
    5cca:	00 00                	add    %al,(%eax)
    5ccc:	00 92 c0 00 00 00    	add    %dl,0xc0(%edx)
	...

000064b8 <printf>:
 */
	for(;;) pause();
}

static int printf(const char *fmt, ...)
{
    64b8:	53                   	push   %ebx
    64b9:	83 ec 08             	sub    $0x8,%esp
	va_list args;
	int i;

	va_start(args, fmt);
    64bc:	8d 44 24 14          	lea    0x14(%esp),%eax
	write(1,printbuf,i=vsprintf(printbuf, fmt, args));
    64c0:	52                   	push   %edx
    64c1:	50                   	push   %eax
    64c2:	ff 74 24 18          	pushl  0x18(%esp)
    64c6:	68 c0 e5 01 00       	push   $0x1e5c0
    64cb:	e8 6e 21 00 00       	call   863e <vsprintf>
    64d0:	83 c4 0c             	add    $0xc,%esp
    64d3:	50                   	push   %eax
    64d4:	68 c0 e5 01 00       	push   $0x1e5c0
    64d9:	6a 01                	push   $0x1
    64db:	89 c3                	mov    %eax,%ebx
    64dd:	e8 46 1e 01 00       	call   18328 <write>
	va_end(args);
	return i;
}
    64e2:	83 c4 18             	add    $0x18,%esp
    64e5:	89 d8                	mov    %ebx,%eax
    64e7:	5b                   	pop    %ebx
    64e8:	c3                   	ret    
    64e9:	8d 76 00             	lea    0x0(%esi),%esi

000064ec <init>:

static char * argv[] = { "-/bin/sh",NULL };
static char * envp[] = { "HOME=/usr/root", NULL };

void init(void)
{
    64ec:	56                   	push   %esi
    64ed:	53                   	push   %ebx
    64ee:	83 ec 08             	sub    $0x8,%esp

/*	setup((void *) &drive_info);
	(void) open("/dev/tty0",O_RDWR,0);
	(void) dup(0);
	(void) dup(0);*/
	printf("%d buffers = %d bytes buffer space\n\r",NR_BUFFERS,
    64f1:	8b 15 60 0b 02 00    	mov    0x20b60,%edx
    64f7:	89 d0                	mov    %edx,%eax
    64f9:	c1 e0 0a             	shl    $0xa,%eax
    64fc:	50                   	push   %eax
    64fd:	52                   	push   %edx
    64fe:	68 a0 86 01 00       	push   $0x186a0
    6503:	e8 b0 ff ff ff       	call   64b8 <printf>
		NR_BUFFERS*BLOCK_SIZE);
	printf("Free mem: %d bytes\n\r",memory_end-main_memory_start);
    6508:	58                   	pop    %eax
    6509:	a1 a4 e5 01 00       	mov    0x1e5a4,%eax
    650e:	5a                   	pop    %edx
    650f:	2b 05 a0 e5 01 00    	sub    0x1e5a0,%eax
    6515:	50                   	push   %eax
    6516:	68 4f 86 01 00       	push   $0x1864f
    651b:	e8 98 ff ff ff       	call   64b8 <printf>
static inline _syscall0(int,fork)
    6520:	83 c4 10             	add    $0x10,%esp
    6523:	b8 02 00 00 00       	mov    $0x2,%eax
    6528:	cd 80                	int    $0x80
    652a:	85 c0                	test   %eax,%eax
    652c:	78 3a                	js     6568 <init+0x7c>
    652e:	85 c0                	test   %eax,%eax
    6530:	89 c3                	mov    %eax,%ebx
    6532:	0f 85 0e 01 00 00    	jne    6646 <init+0x15a>
	if (!(pid=fork())) {
		close(0);
    6538:	83 ec 0c             	sub    $0xc,%esp
    653b:	6a 00                	push   $0x0
    653d:	e8 c4 1d 01 00       	call   18306 <close>
		if (open("/etc/rc",O_RDONLY,0))
    6542:	83 c4 0c             	add    $0xc,%esp
    6545:	6a 00                	push   $0x0
    6547:	6a 00                	push   $0x0
    6549:	68 64 86 01 00       	push   $0x18664
    654e:	e8 89 1d 01 00       	call   182dc <open>
    6553:	83 c4 10             	add    $0x10,%esp
    6556:	85 c0                	test   %eax,%eax
    6558:	0f 84 05 01 00 00    	je     6663 <init+0x177>
			_exit(1);
    655e:	83 ec 0c             	sub    $0xc,%esp
    6561:	6a 01                	push   $0x1
			close(0);close(1);close(2);
			setsid();
			(void) open("/dev/tty0",O_RDWR,0);
			(void) dup(0);
			(void) dup(0);
			_exit(execve("/bin/sh",argv,envp));
    6563:	e8 66 1d 01 00       	call   182ce <_exit>
static inline _syscall0(int,fork)
    6568:	f7 d8                	neg    %eax
    656a:	a3 68 2e 02 00       	mov    %eax,0x22e68
    656f:	89 e6                	mov    %esp,%esi
    6571:	8d 76 00             	lea    0x0(%esi),%esi
    6574:	b8 02 00 00 00       	mov    $0x2,%eax
    6579:	cd 80                	int    $0x80
    657b:	85 c0                	test   %eax,%eax
    657d:	78 40                	js     65bf <init+0xd3>
		if (!pid) {
    657f:	85 c0                	test   %eax,%eax
static inline _syscall0(int,fork)
    6581:	89 c3                	mov    %eax,%ebx
		if (!pid) {
    6583:	74 53                	je     65d8 <init+0xec>
    6585:	8d 76 00             	lea    0x0(%esi),%esi
		}
		while (1)
			if (pid == wait(&i))
    6588:	83 ec 0c             	sub    $0xc,%esp
    658b:	56                   	push   %esi
    658c:	e8 53 1e 01 00       	call   183e4 <wait>
    6591:	83 c4 10             	add    $0x10,%esp
    6594:	39 d8                	cmp    %ebx,%eax
    6596:	75 f0                	jne    6588 <init+0x9c>
				break;
		printf("\n\rchild %d died with code %04x\n\r",pid,i);
    6598:	51                   	push   %ecx
    6599:	ff 74 24 04          	pushl  0x4(%esp)
    659d:	53                   	push   %ebx
    659e:	68 c8 86 01 00       	push   $0x186c8
    65a3:	e8 10 ff ff ff       	call   64b8 <printf>
static inline _syscall0(int,sync)
    65a8:	83 c4 10             	add    $0x10,%esp
    65ab:	b8 24 00 00 00       	mov    $0x24,%eax
    65b0:	cd 80                	int    $0x80
    65b2:	85 c0                	test   %eax,%eax
    65b4:	79 be                	jns    6574 <init+0x88>
    65b6:	f7 d8                	neg    %eax
    65b8:	a3 68 2e 02 00       	mov    %eax,0x22e68
    65bd:	eb b5                	jmp    6574 <init+0x88>
			printf("Fork failed in init\r\n");
    65bf:	83 ec 0c             	sub    $0xc,%esp
static inline _syscall0(int,fork)
    65c2:	f7 d8                	neg    %eax
			printf("Fork failed in init\r\n");
    65c4:	68 6c 86 01 00       	push   $0x1866c
static inline _syscall0(int,fork)
    65c9:	a3 68 2e 02 00       	mov    %eax,0x22e68
			printf("Fork failed in init\r\n");
    65ce:	e8 e5 fe ff ff       	call   64b8 <printf>
			continue;
    65d3:	83 c4 10             	add    $0x10,%esp
    65d6:	eb 9c                	jmp    6574 <init+0x88>
			close(0);close(1);close(2);
    65d8:	83 ec 0c             	sub    $0xc,%esp
    65db:	6a 00                	push   $0x0
    65dd:	e8 24 1d 01 00       	call   18306 <close>
    65e2:	c7 04 24 01 00 00 00 	movl   $0x1,(%esp)
    65e9:	e8 18 1d 01 00       	call   18306 <close>
    65ee:	c7 04 24 02 00 00 00 	movl   $0x2,(%esp)
    65f5:	e8 0c 1d 01 00       	call   18306 <close>
			setsid();
    65fa:	e8 75 1d 01 00       	call   18374 <setsid>
			(void) open("/dev/tty0",O_RDWR,0);
    65ff:	83 c4 0c             	add    $0xc,%esp
    6602:	6a 00                	push   $0x0
    6604:	6a 02                	push   $0x2
    6606:	68 82 86 01 00       	push   $0x18682
    660b:	e8 cc 1c 01 00       	call   182dc <open>
			(void) dup(0);
    6610:	c7 04 24 00 00 00 00 	movl   $0x0,(%esp)
    6617:	e8 36 1d 01 00       	call   18352 <dup>
			(void) dup(0);
    661c:	c7 04 24 00 00 00 00 	movl   $0x0,(%esp)
    6623:	e8 2a 1d 01 00       	call   18352 <dup>
			_exit(execve("/bin/sh",argv,envp));
    6628:	53                   	push   %ebx
    6629:	68 c0 aa 01 00       	push   $0x1aac0
    662e:	68 c8 aa 01 00       	push   $0x1aac8
    6633:	68 40 86 01 00       	push   $0x18640
    6638:	e8 53 1d 01 00       	call   18390 <execve>
    663d:	83 c4 14             	add    $0x14,%esp
    6640:	50                   	push   %eax
    6641:	e8 88 1c 01 00       	call   182ce <_exit>
	if (pid>0)
    6646:	0f 8e 23 ff ff ff    	jle    656f <init+0x83>
    664c:	89 e6                	mov    %esp,%esi
		while (pid != wait(&i))
    664e:	83 ec 0c             	sub    $0xc,%esp
    6651:	56                   	push   %esi
    6652:	e8 8d 1d 01 00       	call   183e4 <wait>
    6657:	83 c4 10             	add    $0x10,%esp
    665a:	39 d8                	cmp    %ebx,%eax
    665c:	75 f0                	jne    664e <init+0x162>
    665e:	e9 0c ff ff ff       	jmp    656f <init+0x83>
		execve("/bin/sh",argv_rc,envp_rc);
    6663:	56                   	push   %esi
    6664:	68 d0 aa 01 00       	push   $0x1aad0
    6669:	68 d8 aa 01 00       	push   $0x1aad8
    666e:	68 40 86 01 00       	push   $0x18640
    6673:	e8 18 1d 01 00       	call   18390 <execve>
		_exit(2);
    6678:	c7 04 24 02 00 00 00 	movl   $0x2,(%esp)
			_exit(execve("/bin/sh",argv,envp));
    667f:	e8 4a 1c 01 00       	call   182ce <_exit>

00006684 <main>:
{			/* The startup routine assumes (well, ...) this */
    6684:	55                   	push   %ebp
    6685:	89 e5                	mov    %esp,%ebp
    6687:	57                   	push   %edi
    6688:	56                   	push   %esi
    6689:	53                   	push   %ebx
    668a:	83 ec 4c             	sub    $0x4c,%esp
 	ROOT_DEV = ORIG_ROOT_DEV;
    668d:	0f b7 05 fc 01 09 00 	movzwl 0x901fc,%eax
    6694:	a3 6c 0b 02 00       	mov    %eax,0x20b6c
 	drive_info = DRIVE_INFO;
    6699:	be 80 00 09 00       	mov    $0x90080,%esi
    669e:	fc                   	cld    
    669f:	b9 08 00 00 00       	mov    $0x8,%ecx
    66a4:	bf 60 0d 02 00       	mov    $0x20d60,%edi
    66a9:	f3 a5                	rep movsl %ds:(%esi),%es:(%edi)
	memory_end = (1<<20) + (EXT_MEM_K<<10);
    66ab:	0f b7 05 02 00 09 00 	movzwl 0x90002,%eax
    66b2:	c1 e0 0a             	shl    $0xa,%eax
    66b5:	05 00 00 10 00       	add    $0x100000,%eax
{			/* The startup routine assumes (well, ...) this */
    66ba:	83 e4 f0             	and    $0xfffffff0,%esp
	memory_end &= 0xfffff000;
    66bd:	25 00 f0 ff ff       	and    $0xfffff000,%eax
{			/* The startup routine assumes (well, ...) this */
    66c2:	83 ec 10             	sub    $0x10,%esp
	if (memory_end > 16*1024*1024)
    66c5:	3d 00 00 00 01       	cmp    $0x1000000,%eax
    66ca:	0f 8e 4e 02 00 00    	jle    691e <main+0x29a>
		memory_end = 16*1024*1024;
    66d0:	c7 05 a4 e5 01 00 00 	movl   $0x1000000,0x1e5a4
    66d7:	00 00 01 
	if (memory_end > 12*1024*1024) 
    66da:	a1 a4 e5 01 00       	mov    0x1e5a4,%eax
    66df:	3d 00 00 c0 00       	cmp    $0xc00000,%eax
    66e4:	0f 8e 3e 02 00 00    	jle    6928 <main+0x2a4>
		buffer_memory_end = 4*1024*1024;
    66ea:	c7 05 a8 e5 01 00 00 	movl   $0x400000,0x1e5a8
    66f1:	00 40 00 
	mem_init(main_memory_start,memory_end);
    66f4:	83 ec 08             	sub    $0x8,%esp
	main_memory_start = buffer_memory_end;
    66f7:	a1 a8 e5 01 00       	mov    0x1e5a8,%eax
	mem_init(main_memory_start,memory_end);
    66fc:	ff 35 a4 e5 01 00    	pushl  0x1e5a4
    6702:	50                   	push   %eax
	main_memory_start = buffer_memory_end;
    6703:	a3 a0 e5 01 00       	mov    %eax,0x1e5a0
	mem_init(main_memory_start,memory_end);
    6708:	e8 c4 3e 00 00       	call   a5d1 <mem_init>
	trap_init();
    670d:	e8 67 14 00 00       	call   7b79 <trap_init>
	blk_dev_init();
    6712:	e8 67 ba 00 00       	call   1217e <blk_dev_init>
	chr_dev_init();
    6717:	e8 21 f4 00 00       	call   15b3d <chr_dev_init>
	tty_init();
    671c:	e8 3b eb 00 00       	call   1525c <tty_init>
{
    6721:	83 c4 10             	add    $0x10,%esp
    6724:	b9 71 00 00 00       	mov    $0x71,%ecx
		time.tm_sec = CMOS_READ(0);
    6729:	b8 80 00 00 00       	mov    $0x80,%eax
    672e:	ba 70 00 00 00       	mov    $0x70,%edx
    6733:	ee                   	out    %al,(%dx)
    6734:	eb 00                	jmp    6736 <main+0xb2>
    6736:	eb 00                	jmp    6738 <main+0xb4>
    6738:	89 ca                	mov    %ecx,%edx
    673a:	ec                   	in     (%dx),%al
    673b:	eb 00                	jmp    673d <main+0xb9>
    673d:	eb 00                	jmp    673f <main+0xbb>
		time.tm_min = CMOS_READ(2);
    673f:	ba 70 00 00 00       	mov    $0x70,%edx
		time.tm_sec = CMOS_READ(0);
    6744:	0f b6 d8             	movzbl %al,%ebx
		time.tm_min = CMOS_READ(2);
    6747:	b8 82 00 00 00       	mov    $0x82,%eax
    674c:	ee                   	out    %al,(%dx)
    674d:	eb 00                	jmp    674f <main+0xcb>
    674f:	eb 00                	jmp    6751 <main+0xcd>
    6751:	89 ca                	mov    %ecx,%edx
    6753:	ec                   	in     (%dx),%al
    6754:	eb 00                	jmp    6756 <main+0xd2>
    6756:	eb 00                	jmp    6758 <main+0xd4>
		time.tm_hour = CMOS_READ(4);
    6758:	ba 70 00 00 00       	mov    $0x70,%edx
		time.tm_min = CMOS_READ(2);
    675d:	0f b6 f0             	movzbl %al,%esi
		time.tm_hour = CMOS_READ(4);
    6760:	b8 84 00 00 00       	mov    $0x84,%eax
    6765:	ee                   	out    %al,(%dx)
    6766:	eb 00                	jmp    6768 <main+0xe4>
    6768:	eb 00                	jmp    676a <main+0xe6>
    676a:	89 ca                	mov    %ecx,%edx
    676c:	ec                   	in     (%dx),%al
    676d:	eb 00                	jmp    676f <main+0xeb>
    676f:	eb 00                	jmp    6771 <main+0xed>
		time.tm_mday = CMOS_READ(7);
    6771:	ba 70 00 00 00       	mov    $0x70,%edx
		time.tm_hour = CMOS_READ(4);
    6776:	0f b6 f8             	movzbl %al,%edi
		time.tm_mday = CMOS_READ(7);
    6779:	b8 87 00 00 00       	mov    $0x87,%eax
    677e:	ee                   	out    %al,(%dx)
    677f:	eb 00                	jmp    6781 <main+0xfd>
    6781:	eb 00                	jmp    6783 <main+0xff>
    6783:	89 ca                	mov    %ecx,%edx
    6785:	ec                   	in     (%dx),%al
    6786:	eb 00                	jmp    6788 <main+0x104>
    6788:	eb 00                	jmp    678a <main+0x106>
    678a:	0f b6 c0             	movzbl %al,%eax
    678d:	89 45 b4             	mov    %eax,-0x4c(%ebp)
		time.tm_mon = CMOS_READ(8);
    6790:	ba 70 00 00 00       	mov    $0x70,%edx
    6795:	b8 88 00 00 00       	mov    $0x88,%eax
    679a:	ee                   	out    %al,(%dx)
    679b:	eb 00                	jmp    679d <main+0x119>
    679d:	eb 00                	jmp    679f <main+0x11b>
    679f:	89 ca                	mov    %ecx,%edx
    67a1:	ec                   	in     (%dx),%al
    67a2:	eb 00                	jmp    67a4 <main+0x120>
    67a4:	eb 00                	jmp    67a6 <main+0x122>
    67a6:	0f b6 c0             	movzbl %al,%eax
    67a9:	89 45 b0             	mov    %eax,-0x50(%ebp)
		time.tm_year = CMOS_READ(9);
    67ac:	ba 70 00 00 00       	mov    $0x70,%edx
    67b1:	b8 89 00 00 00       	mov    $0x89,%eax
    67b6:	ee                   	out    %al,(%dx)
    67b7:	eb 00                	jmp    67b9 <main+0x135>
    67b9:	eb 00                	jmp    67bb <main+0x137>
    67bb:	89 ca                	mov    %ecx,%edx
    67bd:	ec                   	in     (%dx),%al
    67be:	eb 00                	jmp    67c0 <main+0x13c>
    67c0:	eb 00                	jmp    67c2 <main+0x13e>
    67c2:	0f b6 c0             	movzbl %al,%eax
    67c5:	89 45 ac             	mov    %eax,-0x54(%ebp)
	} while (time.tm_sec != CMOS_READ(0));
    67c8:	ba 70 00 00 00       	mov    $0x70,%edx
    67cd:	b8 80 00 00 00       	mov    $0x80,%eax
    67d2:	ee                   	out    %al,(%dx)
    67d3:	eb 00                	jmp    67d5 <main+0x151>
    67d5:	eb 00                	jmp    67d7 <main+0x153>
    67d7:	89 ca                	mov    %ecx,%edx
    67d9:	ec                   	in     (%dx),%al
    67da:	eb 00                	jmp    67dc <main+0x158>
    67dc:	eb 00                	jmp    67de <main+0x15a>
    67de:	0f b6 c0             	movzbl %al,%eax
    67e1:	39 c3                	cmp    %eax,%ebx
    67e3:	0f 85 40 ff ff ff    	jne    6729 <main+0xa5>
	BCD_TO_BIN(time.tm_sec);
    67e9:	89 da                	mov    %ebx,%edx
    67eb:	c1 fb 04             	sar    $0x4,%ebx
    67ee:	83 e2 0f             	and    $0xf,%edx
    67f1:	8d 04 9b             	lea    (%ebx,%ebx,4),%eax
    67f4:	8d 04 42             	lea    (%edx,%eax,2),%eax
	BCD_TO_BIN(time.tm_min);
    67f7:	89 f2                	mov    %esi,%edx
    67f9:	c1 fe 04             	sar    $0x4,%esi
	BCD_TO_BIN(time.tm_sec);
    67fc:	89 45 b8             	mov    %eax,-0x48(%ebp)
	BCD_TO_BIN(time.tm_min);
    67ff:	83 e2 0f             	and    $0xf,%edx
    6802:	8d 04 b6             	lea    (%esi,%esi,4),%eax
    6805:	8d 04 42             	lea    (%edx,%eax,2),%eax
	BCD_TO_BIN(time.tm_hour);
    6808:	89 fa                	mov    %edi,%edx
    680a:	c1 ff 04             	sar    $0x4,%edi
	BCD_TO_BIN(time.tm_min);
    680d:	89 45 bc             	mov    %eax,-0x44(%ebp)
	BCD_TO_BIN(time.tm_hour);
    6810:	83 e2 0f             	and    $0xf,%edx
    6813:	8d 04 bf             	lea    (%edi,%edi,4),%eax
    6816:	8d 04 42             	lea    (%edx,%eax,2),%eax
	BCD_TO_BIN(time.tm_mday);
    6819:	8b 55 b4             	mov    -0x4c(%ebp),%edx
    681c:	c1 7d b4 04          	sarl   $0x4,-0x4c(%ebp)
    6820:	8b 4d b4             	mov    -0x4c(%ebp),%ecx
	BCD_TO_BIN(time.tm_mon);
    6823:	8b 5d b0             	mov    -0x50(%ebp),%ebx
    6826:	c1 7d b0 04          	sarl   $0x4,-0x50(%ebp)
    682a:	8b 75 b0             	mov    -0x50(%ebp),%esi
	BCD_TO_BIN(time.tm_hour);
    682d:	89 45 c0             	mov    %eax,-0x40(%ebp)
	BCD_TO_BIN(time.tm_mday);
    6830:	83 e2 0f             	and    $0xf,%edx
    6833:	8d 04 89             	lea    (%ecx,%ecx,4),%eax
	BCD_TO_BIN(time.tm_year);
    6836:	8b 4d ac             	mov    -0x54(%ebp),%ecx
    6839:	c1 7d ac 04          	sarl   $0x4,-0x54(%ebp)
	BCD_TO_BIN(time.tm_mday);
    683d:	8d 04 42             	lea    (%edx,%eax,2),%eax
	BCD_TO_BIN(time.tm_mon);
    6840:	8d 14 b6             	lea    (%esi,%esi,4),%edx
	BCD_TO_BIN(time.tm_year);
    6843:	8b 75 ac             	mov    -0x54(%ebp),%esi
    6846:	83 e1 0f             	and    $0xf,%ecx
	BCD_TO_BIN(time.tm_mday);
    6849:	89 45 c4             	mov    %eax,-0x3c(%ebp)
	BCD_TO_BIN(time.tm_year);
    684c:	8d 04 b6             	lea    (%esi,%esi,4),%eax
    684f:	8d 04 41             	lea    (%ecx,%eax,2),%eax
	startup_time = kernel_mktime(&time);
    6852:	83 ec 0c             	sub    $0xc,%esp
	BCD_TO_BIN(time.tm_year);
    6855:	89 45 cc             	mov    %eax,-0x34(%ebp)
	BCD_TO_BIN(time.tm_mon);
    6858:	83 e3 0f             	and    $0xf,%ebx
	startup_time = kernel_mktime(&time);
    685b:	8d 45 b8             	lea    -0x48(%ebp),%eax
	time.tm_mon--;
    685e:	8d 54 53 ff          	lea    -0x1(%ebx,%edx,2),%edx
	startup_time = kernel_mktime(&time);
    6862:	50                   	push   %eax
	time.tm_mon--;
    6863:	89 55 c8             	mov    %edx,-0x38(%ebp)
	startup_time = kernel_mktime(&time);
    6866:	e8 d0 2f 00 00       	call   983b <kernel_mktime>
    686b:	83 c4 10             	add    $0x10,%esp
    686e:	a3 c4 e9 01 00       	mov    %eax,0x1e9c4
	sched_init();
    6873:	e8 cb 0c 00 00       	call   7543 <sched_init>
	buffer_init(buffer_memory_end);
    6878:	83 ec 0c             	sub    $0xc,%esp
    687b:	ff 35 a8 e5 01 00    	pushl  0x1e5a8
    6881:	e8 1e 61 00 00       	call   c9a4 <buffer_init>
	hd_init();
    6886:	e8 5b e5 00 00       	call   14de6 <hd_init>
	floppy_init();
    688b:	e8 3a d6 00 00       	call   13eca <floppy_init>
	sti();
    6890:	fb                   	sti    
	move_to_user_mode();
    6891:	89 e0                	mov    %esp,%eax
    6893:	6a 17                	push   $0x17
    6895:	50                   	push   %eax
    6896:	9c                   	pushf  
    6897:	6a 0f                	push   $0xf
    6899:	68 9f 68 00 00       	push   $0x689f
    689e:	cf                   	iret   
    689f:	b8 17 00 00 00       	mov    $0x17,%eax
    68a4:	8e d8                	mov    %eax,%ds
    68a6:	8e c0                	mov    %eax,%es
    68a8:	8e e0                	mov    %eax,%fs
    68aa:	8e e8                	mov    %eax,%gs
static inline _syscall1(int,setup,void *,BIOS)
    68ac:	31 c0                	xor    %eax,%eax
    68ae:	83 c4 10             	add    $0x10,%esp
    68b1:	bb 60 0d 02 00       	mov    $0x20d60,%ebx
    68b6:	cd 80                	int    $0x80
    68b8:	85 c0                	test   %eax,%eax
    68ba:	0f 88 9d 00 00 00    	js     695d <main+0x2d9>
	(void) open("/dev/tty0",O_RDWR,0);
    68c0:	51                   	push   %ecx
    68c1:	6a 00                	push   $0x0
    68c3:	6a 02                	push   $0x2
    68c5:	68 82 86 01 00       	push   $0x18682
    68ca:	e8 0d 1a 01 00       	call   182dc <open>
	(void) dup(0);
    68cf:	c7 04 24 00 00 00 00 	movl   $0x0,(%esp)
    68d6:	e8 77 1a 01 00       	call   18352 <dup>
	(void) dup(0);
    68db:	c7 04 24 00 00 00 00 	movl   $0x0,(%esp)
    68e2:	e8 6b 1a 01 00       	call   18352 <dup>
	(void) open("/var/process.log",O_CREAT|O_TRUNC|O_WRONLY,0666);
    68e7:	83 c4 0c             	add    $0xc,%esp
    68ea:	68 b6 01 00 00       	push   $0x1b6
    68ef:	68 41 02 00 00       	push   $0x241
    68f4:	68 8c 86 01 00       	push   $0x1868c
    68f9:	e8 de 19 01 00       	call   182dc <open>
static inline _syscall0(int,fork)
    68fe:	83 c4 10             	add    $0x10,%esp
    6901:	b8 02 00 00 00       	mov    $0x2,%eax
    6906:	cd 80                	int    $0x80
    6908:	85 c0                	test   %eax,%eax
    690a:	78 48                	js     6954 <main+0x2d0>
    690c:	85 c0                	test   %eax,%eax
    690e:	74 3d                	je     694d <main+0x2c9>
    6910:	ba 1d 00 00 00       	mov    $0x1d,%edx
    6915:	8d 76 00             	lea    0x0(%esi),%esi
static inline _syscall0(int,pause)
    6918:	89 d0                	mov    %edx,%eax
    691a:	cd 80                	int    $0x80
    691c:	eb fa                	jmp    6918 <main+0x294>
    691e:	a3 a4 e5 01 00       	mov    %eax,0x1e5a4
    6923:	e9 b2 fd ff ff       	jmp    66da <main+0x56>
	else if (memory_end > 6*1024*1024)
    6928:	3d 00 00 60 00       	cmp    $0x600000,%eax
    692d:	7e 0f                	jle    693e <main+0x2ba>
		buffer_memory_end = 2*1024*1024;
    692f:	c7 05 a8 e5 01 00 00 	movl   $0x200000,0x1e5a8
    6936:	00 20 00 
    6939:	e9 b6 fd ff ff       	jmp    66f4 <main+0x70>
		buffer_memory_end = 1*1024*1024;
    693e:	c7 05 a8 e5 01 00 00 	movl   $0x100000,0x1e5a8
    6945:	00 10 00 
    6948:	e9 a7 fd ff ff       	jmp    66f4 <main+0x70>
		init();
    694d:	e8 9a fb ff ff       	call   64ec <init>
    6952:	eb bc                	jmp    6910 <main+0x28c>
static inline _syscall0(int,fork)
    6954:	f7 d8                	neg    %eax
    6956:	a3 68 2e 02 00       	mov    %eax,0x22e68
    695b:	eb b3                	jmp    6910 <main+0x28c>
static inline _syscall1(int,setup,void *,BIOS)
    695d:	f7 d8                	neg    %eax
    695f:	a3 68 2e 02 00       	mov    %eax,0x22e68
    6964:	e9 57 ff ff ff       	jmp    68c0 <main+0x23c>
    6969:	90                   	nop

0000696a <show_task>:
#define _BLOCKABLE (~(_S(SIGKILL) | _S(SIGSTOP)))



void show_task(int nr,struct task_struct * p)
{
    696a:	56                   	push   %esi
    696b:	53                   	push   %ebx
    696c:	83 ec 04             	sub    $0x4,%esp
    696f:	8b 5c 24 14          	mov    0x14(%esp),%ebx
	int i,j = 4096-sizeof(struct task_struct);
    6973:	be 44 0c 00 00       	mov    $0xc44,%esi

	printk("%d: pid=%d, state=%d, ",nr,p->pid,p->state);
    6978:	ff 33                	pushl  (%ebx)
    697a:	ff b3 2c 02 00 00    	pushl  0x22c(%ebx)
    6980:	ff 74 24 18          	pushl  0x18(%esp)
    6984:	68 b4 87 01 00       	push   $0x187b4
    6989:	e8 c5 19 00 00       	call   8353 <printk>
	i=0;
    698e:	b8 00 00 00 00       	mov    $0x0,%eax
	while (i<j && !((char *)(p+1))[i])
    6993:	83 c4 10             	add    $0x10,%esp
		i++;
    6996:	80 bb bc 03 00 00 00 	cmpb   $0x0,0x3bc(%ebx)
    699d:	75 0f                	jne    69ae <show_task+0x44>
    699f:	40                   	inc    %eax
    69a0:	39 f0                	cmp    %esi,%eax
    69a2:	7d 0a                	jge    69ae <show_task+0x44>
    69a4:	80 bc 03 bc 03 00 00 	cmpb   $0x0,0x3bc(%ebx,%eax,1)
    69ab:	00 
    69ac:	74 f1                	je     699f <show_task+0x35>
	printk("%d (of %d) chars free in kernel stack\n\r",i,j);
    69ae:	83 ec 04             	sub    $0x4,%esp
    69b1:	56                   	push   %esi
    69b2:	50                   	push   %eax
    69b3:	68 d4 89 01 00       	push   $0x189d4
    69b8:	e8 96 19 00 00       	call   8353 <printk>
}
    69bd:	83 c4 14             	add    $0x14,%esp
    69c0:	5b                   	pop    %ebx
    69c1:	5e                   	pop    %esi
    69c2:	c3                   	ret    

000069c3 <show_stat>:

void show_stat(void)
{
    69c3:	55                   	push   %ebp
    69c4:	57                   	push   %edi
    69c5:	56                   	push   %esi
    69c6:	53                   	push   %ebx
    69c7:	83 ec 0c             	sub    $0xc,%esp
	int i;

	for (i=0;i<NR_TASKS;i++)
    69ca:	be 00 00 00 00       	mov    $0x0,%esi
    69cf:	bd 40 bc 01 00       	mov    $0x1bc40,%ebp
		if (task[i])
    69d4:	83 7c b5 00 00       	cmpl   $0x0,0x0(%ebp,%esi,4)
    69d9:	74 4e                	je     6a29 <show_stat+0x66>
{
    69db:	8b 5c b5 00          	mov    0x0(%ebp,%esi,4),%ebx
	int i,j = 4096-sizeof(struct task_struct);
    69df:	bf 44 0c 00 00       	mov    $0xc44,%edi
	printk("%d: pid=%d, state=%d, ",nr,p->pid,p->state);
    69e4:	ff 33                	pushl  (%ebx)
    69e6:	ff b3 2c 02 00 00    	pushl  0x22c(%ebx)
    69ec:	56                   	push   %esi
    69ed:	68 b4 87 01 00       	push   $0x187b4
    69f2:	e8 5c 19 00 00       	call   8353 <printk>
    69f7:	83 c4 10             	add    $0x10,%esp
	i=0;
    69fa:	b8 00 00 00 00       	mov    $0x0,%eax
		i++;
    69ff:	80 bb bc 03 00 00 00 	cmpb   $0x0,0x3bc(%ebx)
    6a06:	75 0f                	jne    6a17 <show_stat+0x54>
    6a08:	40                   	inc    %eax
    6a09:	39 f8                	cmp    %edi,%eax
    6a0b:	7d 0a                	jge    6a17 <show_stat+0x54>
    6a0d:	80 bc 03 bc 03 00 00 	cmpb   $0x0,0x3bc(%ebx,%eax,1)
    6a14:	00 
    6a15:	74 f1                	je     6a08 <show_stat+0x45>
	printk("%d (of %d) chars free in kernel stack\n\r",i,j);
    6a17:	83 ec 04             	sub    $0x4,%esp
    6a1a:	57                   	push   %edi
    6a1b:	50                   	push   %eax
    6a1c:	68 d4 89 01 00       	push   $0x189d4
    6a21:	e8 2d 19 00 00       	call   8353 <printk>
    6a26:	83 c4 10             	add    $0x10,%esp
	for (i=0;i<NR_TASKS;i++)
    6a29:	46                   	inc    %esi
    6a2a:	83 fe 3f             	cmp    $0x3f,%esi
    6a2d:	7e a5                	jle    69d4 <show_stat+0x11>
			show_task(i,task[i]);
}
    6a2f:	83 c4 0c             	add    $0xc,%esp
    6a32:	5b                   	pop    %ebx
    6a33:	5e                   	pop    %esi
    6a34:	5f                   	pop    %edi
    6a35:	5d                   	pop    %ebp
    6a36:	c3                   	ret    

00006a37 <math_state_restore>:
 *  'math_state_restore()' saves the current math information in the
 * old math state array, and gets the new ones from the current task
 */
void math_state_restore()
{
	if (last_task_used_math == current)
    6a37:	a1 c8 e9 01 00       	mov    0x1e9c8,%eax
    6a3c:	3b 05 20 bc 01 00    	cmp    0x1bc20,%eax
    6a42:	74 36                	je     6a7a <math_state_restore+0x43>
		return;
	__asm__("fwait");
    6a44:	9b                   	fwait
	if (last_task_used_math) {
    6a45:	85 c0                	test   %eax,%eax
    6a47:	74 06                	je     6a4f <math_state_restore+0x18>
		__asm__("fnsave %0"::"m" (last_task_used_math->tss.i387));
    6a49:	dd b0 50 03 00 00    	fnsave 0x350(%eax)
	}
	last_task_used_math=current;
    6a4f:	a1 20 bc 01 00       	mov    0x1bc20,%eax
    6a54:	a3 c8 e9 01 00       	mov    %eax,0x1e9c8
	if (current->used_math) {
    6a59:	66 83 b8 64 02 00 00 	cmpw   $0x0,0x264(%eax)
    6a60:	00 
    6a61:	74 07                	je     6a6a <math_state_restore+0x33>
		__asm__("frstor %0"::"m" (current->tss.i387));
    6a63:	dd a0 50 03 00 00    	frstor 0x350(%eax)
    6a69:	c3                   	ret    
	} else {
		__asm__("fninit"::);
    6a6a:	db e3                	fninit 
		current->used_math=1;
    6a6c:	a1 20 bc 01 00       	mov    0x1bc20,%eax
    6a71:	66 c7 80 64 02 00 00 	movw   $0x1,0x264(%eax)
    6a78:	01 00 
    6a7a:	c3                   	ret    

00006a7b <schedule>:
 *   NOTE!!  Task 0 is the 'idle' task, which gets called when no other
 * tasks can run. It can not be killed, and it cannot sleep. The 'state'
 * information in task[0] is never used.
 */
void schedule(void)
{
    6a7b:	53                   	push   %ebx
    6a7c:	83 ec 08             	sub    $0x8,%esp
	int i,next,c;
	struct task_struct ** p;

/* check alarm, wake up any interruptible tasks that have got a signal */

	for(p = &LAST_TASK ; p > &FIRST_TASK ; --p)
    6a7f:	b9 3c bd 01 00       	mov    $0x1bd3c,%ecx
    6a84:	81 f9 40 bc 01 00    	cmp    $0x1bc40,%ecx
    6a8a:	76 5a                	jbe    6ae6 <schedule+0x6b>
		if (*p) {
    6a8c:	83 39 00             	cmpl   $0x0,(%ecx)
    6a8f:	74 4a                	je     6adb <schedule+0x60>
			if ((*p)->alarm && (*p)->alarm < jiffies) {
    6a91:	8b 11                	mov    (%ecx),%edx
    6a93:	83 ba 4c 02 00 00 00 	cmpl   $0x0,0x24c(%edx)
    6a9a:	74 20                	je     6abc <schedule+0x41>
    6a9c:	a1 c0 e9 01 00       	mov    0x1e9c0,%eax
    6aa1:	39 82 4c 02 00 00    	cmp    %eax,0x24c(%edx)
    6aa7:	7d 13                	jge    6abc <schedule+0x41>
					(*p)->signal |= (1<<(SIGALRM-1));
    6aa9:	81 4a 0c 00 20 00 00 	orl    $0x2000,0xc(%edx)
					(*p)->alarm = 0;
    6ab0:	8b 01                	mov    (%ecx),%eax
    6ab2:	c7 80 4c 02 00 00 00 	movl   $0x0,0x24c(%eax)
    6ab9:	00 00 00 
				}
			if (((*p)->signal & ~(_BLOCKABLE & (*p)->blocked)) &&
    6abc:	8b 11                	mov    (%ecx),%edx
    6abe:	8b 82 10 02 00 00    	mov    0x210(%edx),%eax
    6ac4:	25 ff fe fb ff       	and    $0xfffbfeff,%eax
    6ac9:	f7 d0                	not    %eax
    6acb:	85 42 0c             	test   %eax,0xc(%edx)
    6ace:	74 0b                	je     6adb <schedule+0x60>
    6ad0:	83 3a 01             	cmpl   $0x1,(%edx)
    6ad3:	75 06                	jne    6adb <schedule+0x60>
			(*p)->state==TASK_INTERRUPTIBLE)
				(*p)->state=TASK_RUNNING;
    6ad5:	c7 02 00 00 00 00    	movl   $0x0,(%edx)
	for(p = &LAST_TASK ; p > &FIRST_TASK ; --p)
    6adb:	83 e9 04             	sub    $0x4,%ecx
    6ade:	81 f9 40 bc 01 00    	cmp    $0x1bc40,%ecx
    6ae4:	77 a6                	ja     6a8c <schedule+0x11>
			if (*p)
				(*p)->counter = ((*p)->counter >> 1) +
						(*p)->priority;
	}
	*/
	i = (current_index+1) % NR_TASKS;
    6ae6:	8b 15 cc e9 01 00    	mov    0x1e9cc,%edx
    6aec:	8d 5a 01             	lea    0x1(%edx),%ebx
    6aef:	89 d8                	mov    %ebx,%eax
    6af1:	85 db                	test   %ebx,%ebx
    6af3:	79 03                	jns    6af8 <schedule+0x7d>
    6af5:	8d 42 40             	lea    0x40(%edx),%eax
    6af8:	83 e0 c0             	and    $0xffffffc0,%eax
    6afb:	29 c3                	sub    %eax,%ebx
	while(1)
	{
		p = &task[i];
		if (*p) break;
    6afd:	83 3c 9d 40 bc 01 00 	cmpl   $0x0,0x1bc40(,%ebx,4)
    6b04:	00 
    6b05:	75 15                	jne    6b1c <schedule+0xa1>
		i = (i+1) % NR_TASKS;
    6b07:	8d 4b 01             	lea    0x1(%ebx),%ecx
    6b0a:	89 c8                	mov    %ecx,%eax
    6b0c:	85 c9                	test   %ecx,%ecx
    6b0e:	79 03                	jns    6b13 <schedule+0x98>
    6b10:	8d 43 40             	lea    0x40(%ebx),%eax
    6b13:	83 e0 c0             	and    $0xffffffc0,%eax
    6b16:	89 cb                	mov    %ecx,%ebx
    6b18:	29 c3                	sub    %eax,%ebx
    6b1a:	eb e1                	jmp    6afd <schedule+0x82>
	}
	current_index = i;
    6b1c:	89 1d cc e9 01 00    	mov    %ebx,0x1e9cc
	next = current_index;
	switch_to(next);
    6b22:	89 da                	mov    %ebx,%edx
    6b24:	c1 e2 04             	shl    $0x4,%edx
    6b27:	83 c2 20             	add    $0x20,%edx
    6b2a:	8b 0c 9d 40 bc 01 00 	mov    0x1bc40(,%ebx,4),%ecx
    6b31:	39 0d 20 bc 01 00    	cmp    %ecx,0x1bc20
    6b37:	74 18                	je     6b51 <schedule+0xd6>
    6b39:	66 89 54 24 04       	mov    %dx,0x4(%esp)
    6b3e:	87 0d 20 bc 01 00    	xchg   %ecx,0x1bc20
    6b44:	ff 2c 24             	ljmp   *(%esp)
    6b47:	39 0d c8 e9 01 00    	cmp    %ecx,0x1e9c8
    6b4d:	75 02                	jne    6b51 <schedule+0xd6>
    6b4f:	0f 06                	clts   
}
    6b51:	83 c4 08             	add    $0x8,%esp
    6b54:	5b                   	pop    %ebx
    6b55:	c3                   	ret    

00006b56 <sys_pause>:

int sys_pause(void)
{
    6b56:	53                   	push   %ebx
    6b57:	83 ec 14             	sub    $0x14,%esp

	current->state = TASK_INTERRUPTIBLE;
    6b5a:	a1 20 bc 01 00       	mov    0x1bc20,%eax
    6b5f:	c7 00 01 00 00 00    	movl   $0x1,(%eax)
	fprintk(3, "%ld\t%c\t%ld\n", current->pid, 'W', jiffies);
    6b65:	a1 c0 e9 01 00       	mov    0x1e9c0,%eax
    6b6a:	50                   	push   %eax
    6b6b:	6a 57                	push   $0x57
    6b6d:	a1 20 bc 01 00       	mov    0x1bc20,%eax
    6b72:	ff b0 2c 02 00 00    	pushl  0x22c(%eax)
    6b78:	68 cb 87 01 00       	push   $0x187cb
    6b7d:	6a 03                	push   $0x3
    6b7f:	e8 0a 18 00 00       	call   838e <fprintk>
{
    6b84:	83 c4 20             	add    $0x20,%esp
	for(p = &LAST_TASK ; p > &FIRST_TASK ; --p)
    6b87:	b9 3c bd 01 00       	mov    $0x1bd3c,%ecx
    6b8c:	81 f9 40 bc 01 00    	cmp    $0x1bc40,%ecx
    6b92:	76 5a                	jbe    6bee <sys_pause+0x98>
		if (*p) {
    6b94:	83 39 00             	cmpl   $0x0,(%ecx)
    6b97:	74 4a                	je     6be3 <sys_pause+0x8d>
			if ((*p)->alarm && (*p)->alarm < jiffies) {
    6b99:	8b 11                	mov    (%ecx),%edx
    6b9b:	83 ba 4c 02 00 00 00 	cmpl   $0x0,0x24c(%edx)
    6ba2:	74 20                	je     6bc4 <sys_pause+0x6e>
    6ba4:	a1 c0 e9 01 00       	mov    0x1e9c0,%eax
    6ba9:	39 82 4c 02 00 00    	cmp    %eax,0x24c(%edx)
    6baf:	7d 13                	jge    6bc4 <sys_pause+0x6e>
					(*p)->signal |= (1<<(SIGALRM-1));
    6bb1:	81 4a 0c 00 20 00 00 	orl    $0x2000,0xc(%edx)
					(*p)->alarm = 0;
    6bb8:	8b 01                	mov    (%ecx),%eax
    6bba:	c7 80 4c 02 00 00 00 	movl   $0x0,0x24c(%eax)
    6bc1:	00 00 00 
			if (((*p)->signal & ~(_BLOCKABLE & (*p)->blocked)) &&
    6bc4:	8b 11                	mov    (%ecx),%edx
    6bc6:	8b 82 10 02 00 00    	mov    0x210(%edx),%eax
    6bcc:	25 ff fe fb ff       	and    $0xfffbfeff,%eax
    6bd1:	f7 d0                	not    %eax
    6bd3:	85 42 0c             	test   %eax,0xc(%edx)
    6bd6:	74 0b                	je     6be3 <sys_pause+0x8d>
    6bd8:	83 3a 01             	cmpl   $0x1,(%edx)
    6bdb:	75 06                	jne    6be3 <sys_pause+0x8d>
				(*p)->state=TASK_RUNNING;
    6bdd:	c7 02 00 00 00 00    	movl   $0x0,(%edx)
	for(p = &LAST_TASK ; p > &FIRST_TASK ; --p)
    6be3:	83 e9 04             	sub    $0x4,%ecx
    6be6:	81 f9 40 bc 01 00    	cmp    $0x1bc40,%ecx
    6bec:	77 a6                	ja     6b94 <sys_pause+0x3e>
	i = (current_index+1) % NR_TASKS;
    6bee:	8b 15 cc e9 01 00    	mov    0x1e9cc,%edx
    6bf4:	8d 5a 01             	lea    0x1(%edx),%ebx
    6bf7:	89 d8                	mov    %ebx,%eax
    6bf9:	85 db                	test   %ebx,%ebx
    6bfb:	79 03                	jns    6c00 <sys_pause+0xaa>
    6bfd:	8d 42 40             	lea    0x40(%edx),%eax
    6c00:	83 e0 c0             	and    $0xffffffc0,%eax
    6c03:	29 c3                	sub    %eax,%ebx
		if (*p) break;
    6c05:	83 3c 9d 40 bc 01 00 	cmpl   $0x0,0x1bc40(,%ebx,4)
    6c0c:	00 
    6c0d:	75 15                	jne    6c24 <sys_pause+0xce>
		i = (i+1) % NR_TASKS;
    6c0f:	8d 4b 01             	lea    0x1(%ebx),%ecx
    6c12:	89 c8                	mov    %ecx,%eax
    6c14:	85 c9                	test   %ecx,%ecx
    6c16:	79 03                	jns    6c1b <sys_pause+0xc5>
    6c18:	8d 43 40             	lea    0x40(%ebx),%eax
    6c1b:	83 e0 c0             	and    $0xffffffc0,%eax
    6c1e:	89 cb                	mov    %ecx,%ebx
    6c20:	29 c3                	sub    %eax,%ebx
    6c22:	eb e1                	jmp    6c05 <sys_pause+0xaf>
	current_index = i;
    6c24:	89 1d cc e9 01 00    	mov    %ebx,0x1e9cc
	switch_to(next);
    6c2a:	89 da                	mov    %ebx,%edx
    6c2c:	c1 e2 04             	shl    $0x4,%edx
    6c2f:	83 c2 20             	add    $0x20,%edx
    6c32:	8b 0c 9d 40 bc 01 00 	mov    0x1bc40(,%ebx,4),%ecx
    6c39:	39 0d 20 bc 01 00    	cmp    %ecx,0x1bc20
    6c3f:	74 18                	je     6c59 <sys_pause+0x103>
    6c41:	66 89 54 24 04       	mov    %dx,0x4(%esp)
    6c46:	87 0d 20 bc 01 00    	xchg   %ecx,0x1bc20
    6c4c:	ff 2c 24             	ljmp   *(%esp)
    6c4f:	39 0d c8 e9 01 00    	cmp    %ecx,0x1e9c8
    6c55:	75 02                	jne    6c59 <sys_pause+0x103>
    6c57:	0f 06                	clts   
	schedule();
	fprintk(3, "%ld\t%c\t%ld\n", current->pid, 'R', jiffies);
    6c59:	83 ec 0c             	sub    $0xc,%esp
    6c5c:	a1 c0 e9 01 00       	mov    0x1e9c0,%eax
    6c61:	50                   	push   %eax
    6c62:	6a 52                	push   $0x52
    6c64:	a1 20 bc 01 00       	mov    0x1bc20,%eax
    6c69:	ff b0 2c 02 00 00    	pushl  0x22c(%eax)
    6c6f:	68 cb 87 01 00       	push   $0x187cb
    6c74:	6a 03                	push   $0x3
    6c76:	e8 13 17 00 00       	call   838e <fprintk>
	return 0;
}
    6c7b:	b8 00 00 00 00       	mov    $0x0,%eax
    6c80:	83 c4 28             	add    $0x28,%esp
    6c83:	5b                   	pop    %ebx
    6c84:	c3                   	ret    

00006c85 <sleep_on>:

void sleep_on(struct task_struct **p)
{
    6c85:	56                   	push   %esi
    6c86:	53                   	push   %ebx
    6c87:	83 ec 14             	sub    $0x14,%esp
    6c8a:	8b 5c 24 20          	mov    0x20(%esp),%ebx
	struct task_struct *tmp;

	if (!p)
    6c8e:	85 db                	test   %ebx,%ebx
    6c90:	0f 84 77 01 00 00    	je     6e0d <sleep_on+0x188>
		return;
	if (current == &(init_task.task))
    6c96:	81 3d 20 bc 01 00 20 	cmpl   $0x1ac20,0x1bc20
    6c9d:	ac 01 00 
    6ca0:	75 10                	jne    6cb2 <sleep_on+0x2d>
		panic("task[0] trying to sleep");
    6ca2:	83 ec 0c             	sub    $0xc,%esp
    6ca5:	68 d7 87 01 00       	push   $0x187d7
    6caa:	e8 6a 16 00 00       	call   8319 <panic>
    6caf:	83 c4 10             	add    $0x10,%esp
	tmp = *p;
    6cb2:	8b 33                	mov    (%ebx),%esi
	*p = current;
    6cb4:	a1 20 bc 01 00       	mov    0x1bc20,%eax
    6cb9:	89 03                	mov    %eax,(%ebx)
	current->state = TASK_UNINTERRUPTIBLE;
    6cbb:	a1 20 bc 01 00       	mov    0x1bc20,%eax
    6cc0:	c7 00 02 00 00 00    	movl   $0x2,(%eax)

	fprintk(3, "%ld\t%c\t%ld\n", current->pid, 'W', jiffies);
    6cc6:	83 ec 0c             	sub    $0xc,%esp
    6cc9:	a1 c0 e9 01 00       	mov    0x1e9c0,%eax
    6cce:	50                   	push   %eax
    6ccf:	6a 57                	push   $0x57
    6cd1:	a1 20 bc 01 00       	mov    0x1bc20,%eax
    6cd6:	ff b0 2c 02 00 00    	pushl  0x22c(%eax)
    6cdc:	68 cb 87 01 00       	push   $0x187cb
    6ce1:	6a 03                	push   $0x3
    6ce3:	e8 a6 16 00 00       	call   838e <fprintk>
{
    6ce8:	83 c4 20             	add    $0x20,%esp
	for(p = &LAST_TASK ; p > &FIRST_TASK ; --p)
    6ceb:	b9 3c bd 01 00       	mov    $0x1bd3c,%ecx
    6cf0:	81 f9 40 bc 01 00    	cmp    $0x1bc40,%ecx
    6cf6:	76 5a                	jbe    6d52 <sleep_on+0xcd>
		if (*p) {
    6cf8:	83 39 00             	cmpl   $0x0,(%ecx)
    6cfb:	74 4a                	je     6d47 <sleep_on+0xc2>
			if ((*p)->alarm && (*p)->alarm < jiffies) {
    6cfd:	8b 11                	mov    (%ecx),%edx
    6cff:	83 ba 4c 02 00 00 00 	cmpl   $0x0,0x24c(%edx)
    6d06:	74 20                	je     6d28 <sleep_on+0xa3>
    6d08:	a1 c0 e9 01 00       	mov    0x1e9c0,%eax
    6d0d:	39 82 4c 02 00 00    	cmp    %eax,0x24c(%edx)
    6d13:	7d 13                	jge    6d28 <sleep_on+0xa3>
					(*p)->signal |= (1<<(SIGALRM-1));
    6d15:	81 4a 0c 00 20 00 00 	orl    $0x2000,0xc(%edx)
					(*p)->alarm = 0;
    6d1c:	8b 01                	mov    (%ecx),%eax
    6d1e:	c7 80 4c 02 00 00 00 	movl   $0x0,0x24c(%eax)
    6d25:	00 00 00 
			if (((*p)->signal & ~(_BLOCKABLE & (*p)->blocked)) &&
    6d28:	8b 11                	mov    (%ecx),%edx
    6d2a:	8b 82 10 02 00 00    	mov    0x210(%edx),%eax
    6d30:	25 ff fe fb ff       	and    $0xfffbfeff,%eax
    6d35:	f7 d0                	not    %eax
    6d37:	85 42 0c             	test   %eax,0xc(%edx)
    6d3a:	74 0b                	je     6d47 <sleep_on+0xc2>
    6d3c:	83 3a 01             	cmpl   $0x1,(%edx)
    6d3f:	75 06                	jne    6d47 <sleep_on+0xc2>
				(*p)->state=TASK_RUNNING;
    6d41:	c7 02 00 00 00 00    	movl   $0x0,(%edx)
	for(p = &LAST_TASK ; p > &FIRST_TASK ; --p)
    6d47:	83 e9 04             	sub    $0x4,%ecx
    6d4a:	81 f9 40 bc 01 00    	cmp    $0x1bc40,%ecx
    6d50:	77 a6                	ja     6cf8 <sleep_on+0x73>
	i = (current_index+1) % NR_TASKS;
    6d52:	8b 15 cc e9 01 00    	mov    0x1e9cc,%edx
    6d58:	8d 5a 01             	lea    0x1(%edx),%ebx
    6d5b:	89 d8                	mov    %ebx,%eax
    6d5d:	85 db                	test   %ebx,%ebx
    6d5f:	79 03                	jns    6d64 <sleep_on+0xdf>
    6d61:	8d 42 40             	lea    0x40(%edx),%eax
    6d64:	83 e0 c0             	and    $0xffffffc0,%eax
    6d67:	29 c3                	sub    %eax,%ebx
		if (*p) break;
    6d69:	83 3c 9d 40 bc 01 00 	cmpl   $0x0,0x1bc40(,%ebx,4)
    6d70:	00 
    6d71:	75 15                	jne    6d88 <sleep_on+0x103>
		i = (i+1) % NR_TASKS;
    6d73:	8d 4b 01             	lea    0x1(%ebx),%ecx
    6d76:	89 c8                	mov    %ecx,%eax
    6d78:	85 c9                	test   %ecx,%ecx
    6d7a:	79 03                	jns    6d7f <sleep_on+0xfa>
    6d7c:	8d 43 40             	lea    0x40(%ebx),%eax
    6d7f:	83 e0 c0             	and    $0xffffffc0,%eax
    6d82:	89 cb                	mov    %ecx,%ebx
    6d84:	29 c3                	sub    %eax,%ebx
    6d86:	eb e1                	jmp    6d69 <sleep_on+0xe4>
	current_index = i;
    6d88:	89 1d cc e9 01 00    	mov    %ebx,0x1e9cc
	switch_to(next);
    6d8e:	89 da                	mov    %ebx,%edx
    6d90:	c1 e2 04             	shl    $0x4,%edx
    6d93:	83 c2 20             	add    $0x20,%edx
    6d96:	8b 0c 9d 40 bc 01 00 	mov    0x1bc40(,%ebx,4),%ecx
    6d9d:	39 0d 20 bc 01 00    	cmp    %ecx,0x1bc20
    6da3:	74 19                	je     6dbe <sleep_on+0x139>
    6da5:	66 89 54 24 0c       	mov    %dx,0xc(%esp)
    6daa:	87 0d 20 bc 01 00    	xchg   %ecx,0x1bc20
    6db0:	ff 6c 24 08          	ljmp   *0x8(%esp)
    6db4:	39 0d c8 e9 01 00    	cmp    %ecx,0x1e9c8
    6dba:	75 02                	jne    6dbe <sleep_on+0x139>
    6dbc:	0f 06                	clts   
	schedule();
	fprintk(3, "%ld\t%c\t%ld\n", current->pid, 'R', jiffies);
    6dbe:	83 ec 0c             	sub    $0xc,%esp
    6dc1:	a1 c0 e9 01 00       	mov    0x1e9c0,%eax
    6dc6:	50                   	push   %eax
    6dc7:	6a 52                	push   $0x52
    6dc9:	a1 20 bc 01 00       	mov    0x1bc20,%eax
    6dce:	ff b0 2c 02 00 00    	pushl  0x22c(%eax)
    6dd4:	68 cb 87 01 00       	push   $0x187cb
    6dd9:	6a 03                	push   $0x3
    6ddb:	e8 ae 15 00 00       	call   838e <fprintk>

	if (tmp){
    6de0:	83 c4 20             	add    $0x20,%esp
    6de3:	85 f6                	test   %esi,%esi
    6de5:	74 26                	je     6e0d <sleep_on+0x188>
		fprintk(3, "%ld\t%c\t%ld\n", tmp->pid, 'J', jiffies);
    6de7:	83 ec 0c             	sub    $0xc,%esp
    6dea:	a1 c0 e9 01 00       	mov    0x1e9c0,%eax
    6def:	50                   	push   %eax
    6df0:	6a 4a                	push   $0x4a
    6df2:	ff b6 2c 02 00 00    	pushl  0x22c(%esi)
    6df8:	68 cb 87 01 00       	push   $0x187cb
    6dfd:	6a 03                	push   $0x3
    6dff:	e8 8a 15 00 00       	call   838e <fprintk>
		tmp->state=0;
    6e04:	c7 06 00 00 00 00    	movl   $0x0,(%esi)
    6e0a:	83 c4 20             	add    $0x20,%esp
	}
}
    6e0d:	83 c4 14             	add    $0x14,%esp
    6e10:	5b                   	pop    %ebx
    6e11:	5e                   	pop    %esi
    6e12:	c3                   	ret    

00006e13 <interruptible_sleep_on>:

void interruptible_sleep_on(struct task_struct **p)
{
    6e13:	57                   	push   %edi
    6e14:	56                   	push   %esi
    6e15:	53                   	push   %ebx
    6e16:	83 ec 10             	sub    $0x10,%esp
    6e19:	8b 74 24 20          	mov    0x20(%esp),%esi
	struct task_struct *tmp;

	if (!p)
    6e1d:	85 f6                	test   %esi,%esi
    6e1f:	0f 84 77 01 00 00    	je     6f9c <interruptible_sleep_on+0x189>
		return;
	if (current == &(init_task.task))
    6e25:	81 3d 20 bc 01 00 20 	cmpl   $0x1ac20,0x1bc20
    6e2c:	ac 01 00 
    6e2f:	75 10                	jne    6e41 <interruptible_sleep_on+0x2e>
		panic("task[0] trying to sleep");
    6e31:	83 ec 0c             	sub    $0xc,%esp
    6e34:	68 d7 87 01 00       	push   $0x187d7
    6e39:	e8 db 14 00 00       	call   8319 <panic>
    6e3e:	83 c4 10             	add    $0x10,%esp
	tmp=*p;
    6e41:	8b 3e                	mov    (%esi),%edi
	*p=current;
    6e43:	a1 20 bc 01 00       	mov    0x1bc20,%eax
    6e48:	89 06                	mov    %eax,(%esi)
repeat:	current->state = TASK_INTERRUPTIBLE;
    6e4a:	a1 20 bc 01 00       	mov    0x1bc20,%eax
    6e4f:	c7 00 01 00 00 00    	movl   $0x1,(%eax)
	
	fprintk(3, "%ld\t%c\t%ld\n", current->pid, 'W', jiffies);
    6e55:	83 ec 0c             	sub    $0xc,%esp
    6e58:	a1 c0 e9 01 00       	mov    0x1e9c0,%eax
    6e5d:	50                   	push   %eax
    6e5e:	6a 57                	push   $0x57
    6e60:	a1 20 bc 01 00       	mov    0x1bc20,%eax
    6e65:	ff b0 2c 02 00 00    	pushl  0x22c(%eax)
    6e6b:	68 cb 87 01 00       	push   $0x187cb
    6e70:	6a 03                	push   $0x3
    6e72:	e8 17 15 00 00       	call   838e <fprintk>
{
    6e77:	83 c4 20             	add    $0x20,%esp
	for(p = &LAST_TASK ; p > &FIRST_TASK ; --p)
    6e7a:	b9 3c bd 01 00       	mov    $0x1bd3c,%ecx
    6e7f:	81 f9 40 bc 01 00    	cmp    $0x1bc40,%ecx
    6e85:	76 5a                	jbe    6ee1 <interruptible_sleep_on+0xce>
		if (*p) {
    6e87:	83 39 00             	cmpl   $0x0,(%ecx)
    6e8a:	74 4a                	je     6ed6 <interruptible_sleep_on+0xc3>
			if ((*p)->alarm && (*p)->alarm < jiffies) {
    6e8c:	8b 11                	mov    (%ecx),%edx
    6e8e:	83 ba 4c 02 00 00 00 	cmpl   $0x0,0x24c(%edx)
    6e95:	74 20                	je     6eb7 <interruptible_sleep_on+0xa4>
    6e97:	a1 c0 e9 01 00       	mov    0x1e9c0,%eax
    6e9c:	39 82 4c 02 00 00    	cmp    %eax,0x24c(%edx)
    6ea2:	7d 13                	jge    6eb7 <interruptible_sleep_on+0xa4>
					(*p)->signal |= (1<<(SIGALRM-1));
    6ea4:	81 4a 0c 00 20 00 00 	orl    $0x2000,0xc(%edx)
					(*p)->alarm = 0;
    6eab:	8b 01                	mov    (%ecx),%eax
    6ead:	c7 80 4c 02 00 00 00 	movl   $0x0,0x24c(%eax)
    6eb4:	00 00 00 
			if (((*p)->signal & ~(_BLOCKABLE & (*p)->blocked)) &&
    6eb7:	8b 11                	mov    (%ecx),%edx
    6eb9:	8b 82 10 02 00 00    	mov    0x210(%edx),%eax
    6ebf:	25 ff fe fb ff       	and    $0xfffbfeff,%eax
    6ec4:	f7 d0                	not    %eax
    6ec6:	85 42 0c             	test   %eax,0xc(%edx)
    6ec9:	74 0b                	je     6ed6 <interruptible_sleep_on+0xc3>
    6ecb:	83 3a 01             	cmpl   $0x1,(%edx)
    6ece:	75 06                	jne    6ed6 <interruptible_sleep_on+0xc3>
				(*p)->state=TASK_RUNNING;
    6ed0:	c7 02 00 00 00 00    	movl   $0x0,(%edx)
	for(p = &LAST_TASK ; p > &FIRST_TASK ; --p)
    6ed6:	83 e9 04             	sub    $0x4,%ecx
    6ed9:	81 f9 40 bc 01 00    	cmp    $0x1bc40,%ecx
    6edf:	77 a6                	ja     6e87 <interruptible_sleep_on+0x74>
	i = (current_index+1) % NR_TASKS;
    6ee1:	8b 15 cc e9 01 00    	mov    0x1e9cc,%edx
    6ee7:	8d 5a 01             	lea    0x1(%edx),%ebx
    6eea:	89 d8                	mov    %ebx,%eax
    6eec:	85 db                	test   %ebx,%ebx
    6eee:	79 03                	jns    6ef3 <interruptible_sleep_on+0xe0>
    6ef0:	8d 42 40             	lea    0x40(%edx),%eax
    6ef3:	83 e0 c0             	and    $0xffffffc0,%eax
    6ef6:	29 c3                	sub    %eax,%ebx
		if (*p) break;
    6ef8:	83 3c 9d 40 bc 01 00 	cmpl   $0x0,0x1bc40(,%ebx,4)
    6eff:	00 
    6f00:	75 15                	jne    6f17 <interruptible_sleep_on+0x104>
		i = (i+1) % NR_TASKS;
    6f02:	8d 4b 01             	lea    0x1(%ebx),%ecx
    6f05:	89 c8                	mov    %ecx,%eax
    6f07:	85 c9                	test   %ecx,%ecx
    6f09:	79 03                	jns    6f0e <interruptible_sleep_on+0xfb>
    6f0b:	8d 43 40             	lea    0x40(%ebx),%eax
    6f0e:	83 e0 c0             	and    $0xffffffc0,%eax
    6f11:	89 cb                	mov    %ecx,%ebx
    6f13:	29 c3                	sub    %eax,%ebx
    6f15:	eb e1                	jmp    6ef8 <interruptible_sleep_on+0xe5>
	current_index = i;
    6f17:	89 1d cc e9 01 00    	mov    %ebx,0x1e9cc
	switch_to(next);
    6f1d:	89 da                	mov    %ebx,%edx
    6f1f:	c1 e2 04             	shl    $0x4,%edx
    6f22:	83 c2 20             	add    $0x20,%edx
    6f25:	8b 0c 9d 40 bc 01 00 	mov    0x1bc40(,%ebx,4),%ecx
    6f2c:	39 0d 20 bc 01 00    	cmp    %ecx,0x1bc20
    6f32:	74 19                	je     6f4d <interruptible_sleep_on+0x13a>
    6f34:	66 89 54 24 0c       	mov    %dx,0xc(%esp)
    6f39:	87 0d 20 bc 01 00    	xchg   %ecx,0x1bc20
    6f3f:	ff 6c 24 08          	ljmp   *0x8(%esp)
    6f43:	39 0d c8 e9 01 00    	cmp    %ecx,0x1e9c8
    6f49:	75 02                	jne    6f4d <interruptible_sleep_on+0x13a>
    6f4b:	0f 06                	clts   
	schedule();
	fprintk(3, "%ld\t%c\t%ld\n", current->pid, 'R', jiffies);
    6f4d:	83 ec 0c             	sub    $0xc,%esp
    6f50:	a1 c0 e9 01 00       	mov    0x1e9c0,%eax
    6f55:	50                   	push   %eax
    6f56:	6a 52                	push   $0x52
    6f58:	a1 20 bc 01 00       	mov    0x1bc20,%eax
    6f5d:	ff b0 2c 02 00 00    	pushl  0x22c(%eax)
    6f63:	68 cb 87 01 00       	push   $0x187cb
    6f68:	6a 03                	push   $0x3
    6f6a:	e8 1f 14 00 00       	call   838e <fprintk>

	if (*p && *p != current) {
    6f6f:	83 c4 20             	add    $0x20,%esp
    6f72:	83 3e 00             	cmpl   $0x0,(%esi)
    6f75:	74 15                	je     6f8c <interruptible_sleep_on+0x179>
    6f77:	8b 06                	mov    (%esi),%eax
    6f79:	3b 05 20 bc 01 00    	cmp    0x1bc20,%eax
    6f7f:	74 0b                	je     6f8c <interruptible_sleep_on+0x179>
		(**p).state=0;
    6f81:	c7 00 00 00 00 00    	movl   $0x0,(%eax)
		goto repeat;
    6f87:	e9 be fe ff ff       	jmp    6e4a <interruptible_sleep_on+0x37>
	}
	*p=NULL;
    6f8c:	c7 06 00 00 00 00    	movl   $0x0,(%esi)
	if (tmp)
    6f92:	85 ff                	test   %edi,%edi
    6f94:	74 06                	je     6f9c <interruptible_sleep_on+0x189>
		tmp->state=0;
    6f96:	c7 07 00 00 00 00    	movl   $0x0,(%edi)
}
    6f9c:	83 c4 10             	add    $0x10,%esp
    6f9f:	5b                   	pop    %ebx
    6fa0:	5e                   	pop    %esi
    6fa1:	5f                   	pop    %edi
    6fa2:	c3                   	ret    

00006fa3 <wake_up>:

void wake_up(struct task_struct **p)
{
    6fa3:	8b 54 24 04          	mov    0x4(%esp),%edx
	if (p && *p) {
    6fa7:	85 d2                	test   %edx,%edx
    6fa9:	74 13                	je     6fbe <wake_up+0x1b>
    6fab:	83 3a 00             	cmpl   $0x0,(%edx)
    6fae:	74 0e                	je     6fbe <wake_up+0x1b>
		(**p).state=0;
    6fb0:	8b 02                	mov    (%edx),%eax
    6fb2:	c7 00 00 00 00 00    	movl   $0x0,(%eax)
		*p=NULL;
    6fb8:	c7 02 00 00 00 00    	movl   $0x0,(%edx)
    6fbe:	c3                   	ret    

00006fbf <ticks_to_floppy_on>:
static int  mon_timer[4]={0,0,0,0};
static int moff_timer[4]={0,0,0,0};
unsigned char current_DOR = 0x0C;

int ticks_to_floppy_on(unsigned int nr)
{
    6fbf:	56                   	push   %esi
    6fc0:	53                   	push   %ebx
    6fc1:	83 ec 04             	sub    $0x4,%esp
    6fc4:	8b 74 24 10          	mov    0x10(%esp),%esi
	extern unsigned char selected;
	unsigned char mask = 0x10 << nr;
    6fc8:	b8 10 00 00 00       	mov    $0x10,%eax
    6fcd:	89 c3                	mov    %eax,%ebx
    6fcf:	89 f1                	mov    %esi,%ecx
    6fd1:	d3 e3                	shl    %cl,%ebx

	if (nr>3)
    6fd3:	83 fe 03             	cmp    $0x3,%esi
    6fd6:	76 10                	jbe    6fe8 <ticks_to_floppy_on+0x29>
		panic("floppy_on: nr>3");
    6fd8:	83 ec 0c             	sub    $0xc,%esp
    6fdb:	68 ef 87 01 00       	push   $0x187ef
    6fe0:	e8 34 13 00 00       	call   8319 <panic>
    6fe5:	83 c4 10             	add    $0x10,%esp
	moff_timer[nr]=10000;		/* 100 s = very big :-) */
    6fe8:	c7 04 b5 f0 e9 01 00 	movl   $0x2710,0x1e9f0(,%esi,4)
    6fef:	10 27 00 00 
	cli();				/* use floppy_off to turn it off */
    6ff3:	fa                   	cli    
	mask |= current_DOR;
    6ff4:	0a 1d 48 bd 01 00    	or     0x1bd48,%bl
	if (!selected) {
    6ffa:	80 3d dc 0b 02 00 00 	cmpb   $0x0,0x20bdc
    7001:	75 05                	jne    7008 <ticks_to_floppy_on+0x49>
		mask &= 0xFC;
    7003:	83 e3 fc             	and    $0xfffffffc,%ebx
		mask |= nr;
    7006:	09 f3                	or     %esi,%ebx
	}
	if (mask != current_DOR) {
    7008:	3a 1d 48 bd 01 00    	cmp    0x1bd48,%bl
    700e:	74 37                	je     7047 <ticks_to_floppy_on+0x88>
		outb(mask,FD_DOR);
    7010:	ba f2 03 00 00       	mov    $0x3f2,%edx
    7015:	88 d8                	mov    %bl,%al
    7017:	ee                   	out    %al,(%dx)
		if ((mask ^ current_DOR) & 0xf0)
    7018:	32 05 48 bd 01 00    	xor    0x1bd48,%al
    701e:	a8 f0                	test   $0xf0,%al
    7020:	74 0d                	je     702f <ticks_to_floppy_on+0x70>
			mon_timer[nr] = HZ/2;
    7022:	c7 04 b5 e0 e9 01 00 	movl   $0x32,0x1e9e0(,%esi,4)
    7029:	32 00 00 00 
    702d:	eb 12                	jmp    7041 <ticks_to_floppy_on+0x82>
		else if (mon_timer[nr] < 2)
    702f:	b8 e0 e9 01 00       	mov    $0x1e9e0,%eax
    7034:	83 3c b0 01          	cmpl   $0x1,(%eax,%esi,4)
    7038:	7f 07                	jg     7041 <ticks_to_floppy_on+0x82>
			mon_timer[nr] = 2;
    703a:	c7 04 b0 02 00 00 00 	movl   $0x2,(%eax,%esi,4)
		current_DOR = mask;
    7041:	88 1d 48 bd 01 00    	mov    %bl,0x1bd48
	}
	sti();
    7047:	fb                   	sti    
	return mon_timer[nr];
    7048:	8b 04 b5 e0 e9 01 00 	mov    0x1e9e0(,%esi,4),%eax
}
    704f:	83 c4 04             	add    $0x4,%esp
    7052:	5b                   	pop    %ebx
    7053:	5e                   	pop    %esi
    7054:	c3                   	ret    

00007055 <floppy_on>:

void floppy_on(unsigned int nr)
{
    7055:	55                   	push   %ebp
    7056:	57                   	push   %edi
    7057:	56                   	push   %esi
    7058:	53                   	push   %ebx
    7059:	83 ec 0c             	sub    $0xc,%esp
    705c:	8b 6c 24 20          	mov    0x20(%esp),%ebp
	cli();
    7060:	fa                   	cli    
    7061:	89 ee                	mov    %ebp,%esi
    7063:	b8 10 00 00 00       	mov    $0x10,%eax
    7068:	89 c7                	mov    %eax,%edi
    706a:	89 e9                	mov    %ebp,%ecx
    706c:	d3 e7                	shl    %cl,%edi
	while (ticks_to_floppy_on(nr))
    706e:	eb 13                	jmp    7083 <floppy_on+0x2e>
		sleep_on(nr+wait_motor);
    7070:	83 ec 0c             	sub    $0xc,%esp
    7073:	8d 04 ad d0 e9 01 00 	lea    0x1e9d0(,%ebp,4),%eax
    707a:	50                   	push   %eax
    707b:	e8 05 fc ff ff       	call   6c85 <sleep_on>
    7080:	83 c4 10             	add    $0x10,%esp
	unsigned char mask = 0x10 << nr;
    7083:	89 fb                	mov    %edi,%ebx
	if (nr>3)
    7085:	83 fe 03             	cmp    $0x3,%esi
    7088:	76 10                	jbe    709a <floppy_on+0x45>
		panic("floppy_on: nr>3");
    708a:	83 ec 0c             	sub    $0xc,%esp
    708d:	68 ef 87 01 00       	push   $0x187ef
    7092:	e8 82 12 00 00       	call   8319 <panic>
    7097:	83 c4 10             	add    $0x10,%esp
	moff_timer[nr]=10000;		/* 100 s = very big :-) */
    709a:	c7 04 b5 f0 e9 01 00 	movl   $0x2710,0x1e9f0(,%esi,4)
    70a1:	10 27 00 00 
	cli();				/* use floppy_off to turn it off */
    70a5:	fa                   	cli    
	mask |= current_DOR;
    70a6:	0a 1d 48 bd 01 00    	or     0x1bd48,%bl
	if (!selected) {
    70ac:	80 3d dc 0b 02 00 00 	cmpb   $0x0,0x20bdc
    70b3:	75 05                	jne    70ba <floppy_on+0x65>
		mask &= 0xFC;
    70b5:	83 e3 fc             	and    $0xfffffffc,%ebx
		mask |= nr;
    70b8:	09 f3                	or     %esi,%ebx
	if (mask != current_DOR) {
    70ba:	3a 1d 48 bd 01 00    	cmp    0x1bd48,%bl
    70c0:	74 37                	je     70f9 <floppy_on+0xa4>
		outb(mask,FD_DOR);
    70c2:	ba f2 03 00 00       	mov    $0x3f2,%edx
    70c7:	88 d8                	mov    %bl,%al
    70c9:	ee                   	out    %al,(%dx)
		if ((mask ^ current_DOR) & 0xf0)
    70ca:	32 05 48 bd 01 00    	xor    0x1bd48,%al
    70d0:	a8 f0                	test   $0xf0,%al
    70d2:	74 0d                	je     70e1 <floppy_on+0x8c>
			mon_timer[nr] = HZ/2;
    70d4:	c7 04 b5 e0 e9 01 00 	movl   $0x32,0x1e9e0(,%esi,4)
    70db:	32 00 00 00 
    70df:	eb 12                	jmp    70f3 <floppy_on+0x9e>
		else if (mon_timer[nr] < 2)
    70e1:	b8 e0 e9 01 00       	mov    $0x1e9e0,%eax
    70e6:	83 3c b0 01          	cmpl   $0x1,(%eax,%esi,4)
    70ea:	7f 07                	jg     70f3 <floppy_on+0x9e>
			mon_timer[nr] = 2;
    70ec:	c7 04 b0 02 00 00 00 	movl   $0x2,(%eax,%esi,4)
		current_DOR = mask;
    70f3:	88 1d 48 bd 01 00    	mov    %bl,0x1bd48
	sti();
    70f9:	fb                   	sti    
{
    70fa:	83 3c b5 e0 e9 01 00 	cmpl   $0x0,0x1e9e0(,%esi,4)
    7101:	00 
    7102:	0f 85 68 ff ff ff    	jne    7070 <floppy_on+0x1b>
	sti();
    7108:	fb                   	sti    
}
    7109:	83 c4 0c             	add    $0xc,%esp
    710c:	5b                   	pop    %ebx
    710d:	5e                   	pop    %esi
    710e:	5f                   	pop    %edi
    710f:	5d                   	pop    %ebp
    7110:	c3                   	ret    

00007111 <floppy_off>:

void floppy_off(unsigned int nr)
{
	moff_timer[nr]=3*HZ;
    7111:	8b 44 24 04          	mov    0x4(%esp),%eax
    7115:	c7 04 85 f0 e9 01 00 	movl   $0x12c,0x1e9f0(,%eax,4)
    711c:	2c 01 00 00 
}
    7120:	c3                   	ret    

00007121 <do_floppy_timer>:

void do_floppy_timer(void)
{
    7121:	56                   	push   %esi
    7122:	53                   	push   %ebx
	int i;
	unsigned char mask = 0x10;
    7123:	be 10 00 00 00       	mov    $0x10,%esi

	for (i=0 ; i<4 ; i++,mask <<= 1) {
    7128:	b9 00 00 00 00       	mov    $0x0,%ecx
    712d:	bb 00 00 00 00       	mov    $0x0,%ebx
		if (!(mask & current_DOR))
    7132:	89 f0                	mov    %esi,%eax
    7134:	84 05 48 bd 01 00    	test   %al,0x1bd48
    713a:	74 65                	je     71a1 <do_floppy_timer+0x80>
			continue;
		if (mon_timer[i]) {
    713c:	b8 e0 e9 01 00       	mov    $0x1e9e0,%eax
    7141:	83 3c 88 00          	cmpl   $0x0,(%eax,%ecx,4)
    7145:	74 34                	je     717b <do_floppy_timer+0x5a>
			if (!--mon_timer[i])
    7147:	ff 0c 88             	decl   (%eax,%ecx,4)
    714a:	83 3c 88 00          	cmpl   $0x0,(%eax,%ecx,4)
    714e:	75 51                	jne    71a1 <do_floppy_timer+0x80>
{
    7150:	8d 83 d0 e9 01 00    	lea    0x1e9d0(%ebx),%eax
	if (p && *p) {
    7156:	85 c0                	test   %eax,%eax
    7158:	74 47                	je     71a1 <do_floppy_timer+0x80>
    715a:	83 bb d0 e9 01 00 00 	cmpl   $0x0,0x1e9d0(%ebx)
    7161:	74 3e                	je     71a1 <do_floppy_timer+0x80>
		(**p).state=0;
    7163:	8b 83 d0 e9 01 00    	mov    0x1e9d0(%ebx),%eax
    7169:	c7 00 00 00 00 00    	movl   $0x0,(%eax)
		*p=NULL;
    716f:	c7 83 d0 e9 01 00 00 	movl   $0x0,0x1e9d0(%ebx)
    7176:	00 00 00 
    7179:	eb 26                	jmp    71a1 <do_floppy_timer+0x80>
				wake_up(i+wait_motor);
		} else if (!moff_timer[i]) {
    717b:	83 bb f0 e9 01 00 00 	cmpl   $0x0,0x1e9f0(%ebx)
    7182:	75 17                	jne    719b <do_floppy_timer+0x7a>
			current_DOR &= ~mask;
    7184:	89 f0                	mov    %esi,%eax
    7186:	f7 d0                	not    %eax
    7188:	22 05 48 bd 01 00    	and    0x1bd48,%al
    718e:	a2 48 bd 01 00       	mov    %al,0x1bd48
			outb(current_DOR,FD_DOR);
    7193:	ba f2 03 00 00       	mov    $0x3f2,%edx
    7198:	ee                   	out    %al,(%dx)
    7199:	eb 06                	jmp    71a1 <do_floppy_timer+0x80>
		} else
			moff_timer[i]--;
    719b:	ff 8b f0 e9 01 00    	decl   0x1e9f0(%ebx)
	for (i=0 ; i<4 ; i++,mask <<= 1) {
    71a1:	41                   	inc    %ecx
    71a2:	83 c3 04             	add    $0x4,%ebx
    71a5:	d1 e6                	shl    %esi
    71a7:	83 f9 03             	cmp    $0x3,%ecx
    71aa:	7e 86                	jle    7132 <do_floppy_timer+0x11>
	}
}
    71ac:	5b                   	pop    %ebx
    71ad:	5e                   	pop    %esi
    71ae:	c3                   	ret    

000071af <add_timer>:
	void (*fn)();
	struct timer_list * next;
} timer_list[TIME_REQUESTS], * next_timer = NULL;

void add_timer(long jiffies, void (*fn)(void))
{
    71af:	57                   	push   %edi
    71b0:	56                   	push   %esi
    71b1:	53                   	push   %ebx
    71b2:	8b 7c 24 10          	mov    0x10(%esp),%edi
    71b6:	8b 74 24 14          	mov    0x14(%esp),%esi
	struct timer_list * p;

	if (!fn)
    71ba:	85 f6                	test   %esi,%esi
    71bc:	0f 84 92 00 00 00    	je     7254 <add_timer+0xa5>
		return;
	cli();
    71c2:	fa                   	cli    
	if (jiffies <= 0)
    71c3:	85 ff                	test   %edi,%edi
    71c5:	7f 07                	jg     71ce <add_timer+0x1f>
		(fn)();
    71c7:	ff d6                	call   *%esi
    71c9:	e9 85 00 00 00       	jmp    7253 <add_timer+0xa4>
	else {
		for (p = timer_list ; p < timer_list + TIME_REQUESTS ; p++)
    71ce:	bb 20 ea 01 00       	mov    $0x1ea20,%ebx
    71d3:	81 fb 20 ed 01 00    	cmp    $0x1ed20,%ebx
    71d9:	73 1b                	jae    71f6 <add_timer+0x47>
			if (!p->fn)
    71db:	83 7b 04 00          	cmpl   $0x0,0x4(%ebx)
    71df:	74 0d                	je     71ee <add_timer+0x3f>
		for (p = timer_list ; p < timer_list + TIME_REQUESTS ; p++)
    71e1:	83 c3 0c             	add    $0xc,%ebx
    71e4:	81 fb 20 ed 01 00    	cmp    $0x1ed20,%ebx
    71ea:	72 ef                	jb     71db <add_timer+0x2c>
    71ec:	eb 08                	jmp    71f6 <add_timer+0x47>
				break;
		if (p >= timer_list + TIME_REQUESTS)
    71ee:	81 fb 20 ed 01 00    	cmp    $0x1ed20,%ebx
    71f4:	72 10                	jb     7206 <add_timer+0x57>
			panic("No more time requests free");
    71f6:	83 ec 0c             	sub    $0xc,%esp
    71f9:	68 ff 87 01 00       	push   $0x187ff
    71fe:	e8 16 11 00 00       	call   8319 <panic>
    7203:	83 c4 10             	add    $0x10,%esp
		p->fn = fn;
    7206:	89 73 04             	mov    %esi,0x4(%ebx)
		p->jiffies = jiffies;
    7209:	89 3b                	mov    %edi,(%ebx)
		p->next = next_timer;
    720b:	a1 00 ea 01 00       	mov    0x1ea00,%eax
    7210:	89 43 08             	mov    %eax,0x8(%ebx)
		next_timer = p;
    7213:	89 1d 00 ea 01 00    	mov    %ebx,0x1ea00
			p->fn = p->next->fn;
			p->next->fn = fn;
			jiffies = p->jiffies;
			p->jiffies = p->next->jiffies;
			p->next->jiffies = jiffies;
			p = p->next;
    7219:	83 7b 08 00          	cmpl   $0x0,0x8(%ebx)
    721d:	74 34                	je     7253 <add_timer+0xa4>
    721f:	8b 43 08             	mov    0x8(%ebx),%eax
    7222:	89 c2                	mov    %eax,%edx
    7224:	8b 00                	mov    (%eax),%eax
    7226:	3b 03                	cmp    (%ebx),%eax
    7228:	7d 29                	jge    7253 <add_timer+0xa4>
			p->jiffies -= p->next->jiffies;
    722a:	8b 0b                	mov    (%ebx),%ecx
    722c:	2b 0a                	sub    (%edx),%ecx
    722e:	89 0b                	mov    %ecx,(%ebx)
			fn = p->fn;
    7230:	8b 73 04             	mov    0x4(%ebx),%esi
			p->fn = p->next->fn;
    7233:	8b 42 04             	mov    0x4(%edx),%eax
    7236:	89 43 04             	mov    %eax,0x4(%ebx)
			p->next->fn = fn;
    7239:	89 72 04             	mov    %esi,0x4(%edx)
			p->jiffies = p->next->jiffies;
    723c:	8b 02                	mov    (%edx),%eax
    723e:	89 03                	mov    %eax,(%ebx)
			p->next->jiffies = jiffies;
    7240:	89 0a                	mov    %ecx,(%edx)
			p = p->next;
    7242:	89 d3                	mov    %edx,%ebx
    7244:	83 7a 08 00          	cmpl   $0x0,0x8(%edx)
    7248:	74 09                	je     7253 <add_timer+0xa4>
    724a:	8b 52 08             	mov    0x8(%edx),%edx
    724d:	8b 02                	mov    (%edx),%eax
    724f:	39 c8                	cmp    %ecx,%eax
    7251:	7c d7                	jl     722a <add_timer+0x7b>
		}
	}
	sti();
    7253:	fb                   	sti    
}
    7254:	5b                   	pop    %ebx
    7255:	5e                   	pop    %esi
    7256:	5f                   	pop    %edi
    7257:	c3                   	ret    

00007258 <do_timer>:

void do_timer(long cpl)
{
    7258:	57                   	push   %edi
    7259:	56                   	push   %esi
    725a:	53                   	push   %ebx
    725b:	83 ec 10             	sub    $0x10,%esp
    725e:	8b 7c 24 20          	mov    0x20(%esp),%edi
	extern int beepcount;
	extern void sysbeepstop(void);

	if (beepcount)
    7262:	83 3d c0 0c 02 00 00 	cmpl   $0x0,0x20cc0
    7269:	74 14                	je     727f <do_timer+0x27>
		if (!--beepcount)
    726b:	ff 0d c0 0c 02 00    	decl   0x20cc0
    7271:	83 3d c0 0c 02 00 00 	cmpl   $0x0,0x20cc0
    7278:	75 05                	jne    727f <do_timer+0x27>
			sysbeepstop();
    727a:	e8 38 02 01 00       	call   174b7 <sysbeepstop>

	if (cpl)
    727f:	85 ff                	test   %edi,%edi
    7281:	74 0d                	je     7290 <do_timer+0x38>
		current->utime++;
    7283:	a1 20 bc 01 00       	mov    0x1bc20,%eax
    7288:	ff 80 50 02 00 00    	incl   0x250(%eax)
    728e:	eb 0b                	jmp    729b <do_timer+0x43>
	else
		current->stime++;
    7290:	a1 20 bc 01 00       	mov    0x1bc20,%eax
    7295:	ff 80 54 02 00 00    	incl   0x254(%eax)

	if (next_timer) {
    729b:	83 3d 00 ea 01 00 00 	cmpl   $0x0,0x1ea00
    72a2:	74 4b                	je     72ef <do_timer+0x97>
		next_timer->jiffies--;
    72a4:	a1 00 ea 01 00       	mov    0x1ea00,%eax
    72a9:	ff 08                	decl   (%eax)
			void (*fn)(void);
			
			fn = next_timer->fn;
			next_timer->fn = NULL;
			next_timer = next_timer->next;
			(fn)();
    72ab:	83 3d 00 ea 01 00 00 	cmpl   $0x0,0x1ea00
    72b2:	74 3b                	je     72ef <do_timer+0x97>
    72b4:	a1 00 ea 01 00       	mov    0x1ea00,%eax
    72b9:	89 c2                	mov    %eax,%edx
    72bb:	83 38 00             	cmpl   $0x0,(%eax)
    72be:	7f 2f                	jg     72ef <do_timer+0x97>
			fn = next_timer->fn;
    72c0:	89 d0                	mov    %edx,%eax
    72c2:	8b 52 04             	mov    0x4(%edx),%edx
			next_timer->fn = NULL;
    72c5:	c7 40 04 00 00 00 00 	movl   $0x0,0x4(%eax)
			next_timer = next_timer->next;
    72cc:	a1 00 ea 01 00       	mov    0x1ea00,%eax
    72d1:	8b 40 08             	mov    0x8(%eax),%eax
    72d4:	a3 00 ea 01 00       	mov    %eax,0x1ea00
			(fn)();
    72d9:	ff d2                	call   *%edx
    72db:	83 3d 00 ea 01 00 00 	cmpl   $0x0,0x1ea00
    72e2:	74 0b                	je     72ef <do_timer+0x97>
    72e4:	8b 15 00 ea 01 00    	mov    0x1ea00,%edx
    72ea:	83 3a 00             	cmpl   $0x0,(%edx)
    72ed:	7e d1                	jle    72c0 <do_timer+0x68>
		}
	}
	if (current_DOR & 0xf0)
    72ef:	f6 05 48 bd 01 00 f0 	testb  $0xf0,0x1bd48
    72f6:	0f 84 89 00 00 00    	je     7385 <do_timer+0x12d>
	unsigned char mask = 0x10;
    72fc:	be 10 00 00 00       	mov    $0x10,%esi
	for (i=0 ; i<4 ; i++,mask <<= 1) {
    7301:	b9 00 00 00 00       	mov    $0x0,%ecx
    7306:	bb 00 00 00 00       	mov    $0x0,%ebx
		if (!(mask & current_DOR))
    730b:	89 f0                	mov    %esi,%eax
    730d:	84 05 48 bd 01 00    	test   %al,0x1bd48
    7313:	74 65                	je     737a <do_timer+0x122>
		if (mon_timer[i]) {
    7315:	b8 e0 e9 01 00       	mov    $0x1e9e0,%eax
    731a:	83 3c 88 00          	cmpl   $0x0,(%eax,%ecx,4)
    731e:	74 34                	je     7354 <do_timer+0xfc>
			if (!--mon_timer[i])
    7320:	ff 0c 88             	decl   (%eax,%ecx,4)
    7323:	83 3c 88 00          	cmpl   $0x0,(%eax,%ecx,4)
    7327:	75 51                	jne    737a <do_timer+0x122>
{
    7329:	8d 83 d0 e9 01 00    	lea    0x1e9d0(%ebx),%eax
	if (p && *p) {
    732f:	85 c0                	test   %eax,%eax
    7331:	74 47                	je     737a <do_timer+0x122>
    7333:	83 bb d0 e9 01 00 00 	cmpl   $0x0,0x1e9d0(%ebx)
    733a:	74 3e                	je     737a <do_timer+0x122>
		(**p).state=0;
    733c:	8b 83 d0 e9 01 00    	mov    0x1e9d0(%ebx),%eax
    7342:	c7 00 00 00 00 00    	movl   $0x0,(%eax)
		*p=NULL;
    7348:	c7 83 d0 e9 01 00 00 	movl   $0x0,0x1e9d0(%ebx)
    734f:	00 00 00 
    7352:	eb 26                	jmp    737a <do_timer+0x122>
		} else if (!moff_timer[i]) {
    7354:	83 bb f0 e9 01 00 00 	cmpl   $0x0,0x1e9f0(%ebx)
    735b:	75 17                	jne    7374 <do_timer+0x11c>
			current_DOR &= ~mask;
    735d:	89 f0                	mov    %esi,%eax
    735f:	f7 d0                	not    %eax
    7361:	22 05 48 bd 01 00    	and    0x1bd48,%al
    7367:	a2 48 bd 01 00       	mov    %al,0x1bd48
			outb(current_DOR,FD_DOR);
    736c:	ba f2 03 00 00       	mov    $0x3f2,%edx
    7371:	ee                   	out    %al,(%dx)
    7372:	eb 06                	jmp    737a <do_timer+0x122>
			moff_timer[i]--;
    7374:	ff 8b f0 e9 01 00    	decl   0x1e9f0(%ebx)
	for (i=0 ; i<4 ; i++,mask <<= 1) {
    737a:	41                   	inc    %ecx
    737b:	83 c3 04             	add    $0x4,%ebx
    737e:	d1 e6                	shl    %esi
    7380:	83 f9 03             	cmp    $0x3,%ecx
    7383:	7e 86                	jle    730b <do_timer+0xb3>
		do_floppy_timer();
	if ((--current->counter)>0) return;
    7385:	a1 20 bc 01 00       	mov    0x1bc20,%eax
    738a:	ff 48 04             	decl   0x4(%eax)
    738d:	83 78 04 00          	cmpl   $0x0,0x4(%eax)
    7391:	0f 8f e7 00 00 00    	jg     747e <do_timer+0x226>
	current->counter=0;
    7397:	a1 20 bc 01 00       	mov    0x1bc20,%eax
    739c:	c7 40 04 00 00 00 00 	movl   $0x0,0x4(%eax)
	if (!cpl) return;
    73a3:	85 ff                	test   %edi,%edi
    73a5:	0f 84 d3 00 00 00    	je     747e <do_timer+0x226>
	for(p = &LAST_TASK ; p > &FIRST_TASK ; --p)
    73ab:	b9 3c bd 01 00       	mov    $0x1bd3c,%ecx
    73b0:	81 f9 40 bc 01 00    	cmp    $0x1bc40,%ecx
    73b6:	76 5a                	jbe    7412 <do_timer+0x1ba>
		if (*p) {
    73b8:	83 39 00             	cmpl   $0x0,(%ecx)
    73bb:	74 4a                	je     7407 <do_timer+0x1af>
			if ((*p)->alarm && (*p)->alarm < jiffies) {
    73bd:	8b 11                	mov    (%ecx),%edx
    73bf:	83 ba 4c 02 00 00 00 	cmpl   $0x0,0x24c(%edx)
    73c6:	74 20                	je     73e8 <do_timer+0x190>
    73c8:	a1 c0 e9 01 00       	mov    0x1e9c0,%eax
    73cd:	39 82 4c 02 00 00    	cmp    %eax,0x24c(%edx)
    73d3:	7d 13                	jge    73e8 <do_timer+0x190>
					(*p)->signal |= (1<<(SIGALRM-1));
    73d5:	81 4a 0c 00 20 00 00 	orl    $0x2000,0xc(%edx)
					(*p)->alarm = 0;
    73dc:	8b 01                	mov    (%ecx),%eax
    73de:	c7 80 4c 02 00 00 00 	movl   $0x0,0x24c(%eax)
    73e5:	00 00 00 
			if (((*p)->signal & ~(_BLOCKABLE & (*p)->blocked)) &&
    73e8:	8b 11                	mov    (%ecx),%edx
    73ea:	8b 82 10 02 00 00    	mov    0x210(%edx),%eax
    73f0:	25 ff fe fb ff       	and    $0xfffbfeff,%eax
    73f5:	f7 d0                	not    %eax
    73f7:	85 42 0c             	test   %eax,0xc(%edx)
    73fa:	74 0b                	je     7407 <do_timer+0x1af>
    73fc:	83 3a 01             	cmpl   $0x1,(%edx)
    73ff:	75 06                	jne    7407 <do_timer+0x1af>
				(*p)->state=TASK_RUNNING;
    7401:	c7 02 00 00 00 00    	movl   $0x0,(%edx)
	for(p = &LAST_TASK ; p > &FIRST_TASK ; --p)
    7407:	83 e9 04             	sub    $0x4,%ecx
    740a:	81 f9 40 bc 01 00    	cmp    $0x1bc40,%ecx
    7410:	77 a6                	ja     73b8 <do_timer+0x160>
	i = (current_index+1) % NR_TASKS;
    7412:	8b 15 cc e9 01 00    	mov    0x1e9cc,%edx
    7418:	8d 5a 01             	lea    0x1(%edx),%ebx
    741b:	89 d8                	mov    %ebx,%eax
    741d:	85 db                	test   %ebx,%ebx
    741f:	79 03                	jns    7424 <do_timer+0x1cc>
    7421:	8d 42 40             	lea    0x40(%edx),%eax
    7424:	83 e0 c0             	and    $0xffffffc0,%eax
    7427:	29 c3                	sub    %eax,%ebx
		if (*p) break;
    7429:	83 3c 9d 40 bc 01 00 	cmpl   $0x0,0x1bc40(,%ebx,4)
    7430:	00 
    7431:	75 15                	jne    7448 <do_timer+0x1f0>
		i = (i+1) % NR_TASKS;
    7433:	8d 4b 01             	lea    0x1(%ebx),%ecx
    7436:	89 c8                	mov    %ecx,%eax
    7438:	85 c9                	test   %ecx,%ecx
    743a:	79 03                	jns    743f <do_timer+0x1e7>
    743c:	8d 43 40             	lea    0x40(%ebx),%eax
    743f:	83 e0 c0             	and    $0xffffffc0,%eax
    7442:	89 cb                	mov    %ecx,%ebx
    7444:	29 c3                	sub    %eax,%ebx
    7446:	eb e1                	jmp    7429 <do_timer+0x1d1>
	current_index = i;
    7448:	89 1d cc e9 01 00    	mov    %ebx,0x1e9cc
	switch_to(next);
    744e:	89 da                	mov    %ebx,%edx
    7450:	c1 e2 04             	shl    $0x4,%edx
    7453:	83 c2 20             	add    $0x20,%edx
    7456:	8b 0c 9d 40 bc 01 00 	mov    0x1bc40(,%ebx,4),%ecx
    745d:	39 0d 20 bc 01 00    	cmp    %ecx,0x1bc20
    7463:	74 19                	je     747e <do_timer+0x226>
    7465:	66 89 54 24 0c       	mov    %dx,0xc(%esp)
    746a:	87 0d 20 bc 01 00    	xchg   %ecx,0x1bc20
    7470:	ff 6c 24 08          	ljmp   *0x8(%esp)
    7474:	39 0d c8 e9 01 00    	cmp    %ecx,0x1e9c8
    747a:	75 02                	jne    747e <do_timer+0x226>
    747c:	0f 06                	clts   
	schedule();
}
    747e:	83 c4 10             	add    $0x10,%esp
    7481:	5b                   	pop    %ebx
    7482:	5e                   	pop    %esi
    7483:	5f                   	pop    %edi
    7484:	c3                   	ret    

00007485 <sys_alarm>:

int sys_alarm(long seconds)
{
    7485:	56                   	push   %esi
    7486:	53                   	push   %ebx
    7487:	8b 5c 24 0c          	mov    0xc(%esp),%ebx
	int old = current->alarm;
    748b:	a1 20 bc 01 00       	mov    0x1bc20,%eax
    7490:	8b 88 4c 02 00 00    	mov    0x24c(%eax),%ecx

	if (old)
    7496:	85 c9                	test   %ecx,%ecx
    7498:	74 1a                	je     74b4 <sys_alarm+0x2f>
		old = (old - jiffies) / HZ;
    749a:	a1 c0 e9 01 00       	mov    0x1e9c0,%eax
    749f:	29 c1                	sub    %eax,%ecx
    74a1:	b8 1f 85 eb 51       	mov    $0x51eb851f,%eax
    74a6:	f7 e9                	imul   %ecx
    74a8:	c1 fa 05             	sar    $0x5,%edx
    74ab:	89 c8                	mov    %ecx,%eax
    74ad:	c1 f8 1f             	sar    $0x1f,%eax
    74b0:	89 d1                	mov    %edx,%ecx
    74b2:	29 c1                	sub    %eax,%ecx
	current->alarm = (seconds>0)?(jiffies+HZ*seconds):0;
    74b4:	8b 35 20 bc 01 00    	mov    0x1bc20,%esi
    74ba:	b8 00 00 00 00       	mov    $0x0,%eax
    74bf:	85 db                	test   %ebx,%ebx
    74c1:	7e 0f                	jle    74d2 <sys_alarm+0x4d>
    74c3:	8d 04 9b             	lea    (%ebx,%ebx,4),%eax
    74c6:	8d 04 80             	lea    (%eax,%eax,4),%eax
    74c9:	8b 15 c0 e9 01 00    	mov    0x1e9c0,%edx
    74cf:	8d 04 82             	lea    (%edx,%eax,4),%eax
    74d2:	89 86 4c 02 00 00    	mov    %eax,0x24c(%esi)
	return (old);
}
    74d8:	89 c8                	mov    %ecx,%eax
    74da:	5b                   	pop    %ebx
    74db:	5e                   	pop    %esi
    74dc:	c3                   	ret    

000074dd <sys_getpid>:

int sys_getpid(void)
{
	return current->pid;
    74dd:	a1 20 bc 01 00       	mov    0x1bc20,%eax
    74e2:	8b 80 2c 02 00 00    	mov    0x22c(%eax),%eax
}
    74e8:	c3                   	ret    

000074e9 <sys_getppid>:

int sys_getppid(void)
{
	return current->father;
    74e9:	a1 20 bc 01 00       	mov    0x1bc20,%eax
    74ee:	8b 80 30 02 00 00    	mov    0x230(%eax),%eax
}
    74f4:	c3                   	ret    

000074f5 <sys_getuid>:

int sys_getuid(void)
{
	return current->uid;
    74f5:	a1 20 bc 01 00       	mov    0x1bc20,%eax
    74fa:	0f b7 80 40 02 00 00 	movzwl 0x240(%eax),%eax
}
    7501:	c3                   	ret    

00007502 <sys_geteuid>:

int sys_geteuid(void)
{
	return current->euid;
    7502:	a1 20 bc 01 00       	mov    0x1bc20,%eax
    7507:	0f b7 80 42 02 00 00 	movzwl 0x242(%eax),%eax
}
    750e:	c3                   	ret    

0000750f <sys_getgid>:

int sys_getgid(void)
{
	return current->gid;
    750f:	a1 20 bc 01 00       	mov    0x1bc20,%eax
    7514:	0f b7 80 46 02 00 00 	movzwl 0x246(%eax),%eax
}
    751b:	c3                   	ret    

0000751c <sys_getegid>:

int sys_getegid(void)
{
	return current->egid;
    751c:	a1 20 bc 01 00       	mov    0x1bc20,%eax
    7521:	0f b7 80 48 02 00 00 	movzwl 0x248(%eax),%eax
}
    7528:	c3                   	ret    

00007529 <sys_nice>:

int sys_nice(long increment)
{
	if (current->priority-increment>0)
    7529:	8b 15 20 bc 01 00    	mov    0x1bc20,%edx
    752f:	8b 42 08             	mov    0x8(%edx),%eax
    7532:	2b 44 24 04          	sub    0x4(%esp),%eax
    7536:	85 c0                	test   %eax,%eax
    7538:	7e 03                	jle    753d <sys_nice+0x14>
		current->priority -= increment;
    753a:	89 42 08             	mov    %eax,0x8(%edx)
	return 0;
}
    753d:	b8 00 00 00 00       	mov    $0x0,%eax
    7542:	c3                   	ret    

00007543 <sched_init>:
	int i;
	struct desc_struct * p;

	if (sizeof(struct sigaction) != 16)
		panic("Struct sigaction MUST be 16 bytes");
	set_tss_desc(gdt+FIRST_TSS_ENTRY,&(init_task.task.tss));
    7543:	b8 08 af 01 00       	mov    $0x1af08,%eax
    7548:	66 c7 05 d8 5c 00 00 	movw   $0x68,0x5cd8
    754f:	68 00 
    7551:	66 a3 da 5c 00 00    	mov    %ax,0x5cda
    7557:	c1 c8 10             	ror    $0x10,%eax
    755a:	a2 dc 5c 00 00       	mov    %al,0x5cdc
    755f:	c6 05 dd 5c 00 00 89 	movb   $0x89,0x5cdd
    7566:	c6 05 de 5c 00 00 00 	movb   $0x0,0x5cde
    756d:	88 25 df 5c 00 00    	mov    %ah,0x5cdf
    7573:	c1 c8 10             	ror    $0x10,%eax
	set_ldt_desc(gdt+FIRST_LDT_ENTRY,&(init_task.task.ldt));
    7576:	b8 f0 ae 01 00       	mov    $0x1aef0,%eax
    757b:	66 c7 05 e0 5c 00 00 	movw   $0x68,0x5ce0
    7582:	68 00 
    7584:	66 a3 e2 5c 00 00    	mov    %ax,0x5ce2
    758a:	c1 c8 10             	ror    $0x10,%eax
    758d:	a2 e4 5c 00 00       	mov    %al,0x5ce4
    7592:	c6 05 e5 5c 00 00 82 	movb   $0x82,0x5ce5
    7599:	c6 05 e6 5c 00 00 00 	movb   $0x0,0x5ce6
    75a0:	88 25 e7 5c 00 00    	mov    %ah,0x5ce7
    75a6:	c1 c8 10             	ror    $0x10,%eax
	p = gdt+2+FIRST_TSS_ENTRY;
    75a9:	b8 e8 5c 00 00       	mov    $0x5ce8,%eax
	for(i=1;i<NR_TASKS;i++) {
    75ae:	ba 01 00 00 00       	mov    $0x1,%edx
    75b3:	b9 40 bc 01 00       	mov    $0x1bc40,%ecx
		task[i] = NULL;
    75b8:	c7 04 91 00 00 00 00 	movl   $0x0,(%ecx,%edx,4)
		p->a=p->b=0;
    75bf:	c7 40 04 00 00 00 00 	movl   $0x0,0x4(%eax)
    75c6:	c7 00 00 00 00 00    	movl   $0x0,(%eax)
		p++;
    75cc:	83 c0 08             	add    $0x8,%eax
		p->a=p->b=0;
    75cf:	c7 40 04 00 00 00 00 	movl   $0x0,0x4(%eax)
    75d6:	c7 00 00 00 00 00    	movl   $0x0,(%eax)
		p++;
    75dc:	83 c0 08             	add    $0x8,%eax
	for(i=1;i<NR_TASKS;i++) {
    75df:	42                   	inc    %edx
    75e0:	83 fa 3f             	cmp    $0x3f,%edx
    75e3:	7e d3                	jle    75b8 <sched_init+0x75>
	}
/* Clear NT, so that we won't have troubles with that later on */
	__asm__("pushfl ; andl $0xffffbfff,(%esp) ; popfl");
    75e5:	9c                   	pushf  
    75e6:	81 24 24 ff bf ff ff 	andl   $0xffffbfff,(%esp)
    75ed:	9d                   	popf   
	ltr(0);
    75ee:	b8 20 00 00 00       	mov    $0x20,%eax
    75f3:	0f 00 d8             	ltr    %ax
	lldt(0);
    75f6:	b0 28                	mov    $0x28,%al
    75f8:	0f 00 d0             	lldt   %ax
	outb_p(0x36,0x43);		/* binary, mode 3, LSB/MSB, ch 0 */
    75fb:	b0 36                	mov    $0x36,%al
    75fd:	ba 43 00 00 00       	mov    $0x43,%edx
    7602:	ee                   	out    %al,(%dx)
    7603:	eb 00                	jmp    7605 <sched_init+0xc2>
    7605:	eb 00                	jmp    7607 <sched_init+0xc4>
	outb_p(LATCH & 0xff , 0x40);	/* LSB */
    7607:	b0 9b                	mov    $0x9b,%al
    7609:	b2 40                	mov    $0x40,%dl
    760b:	ee                   	out    %al,(%dx)
    760c:	eb 00                	jmp    760e <sched_init+0xcb>
    760e:	eb 00                	jmp    7610 <sched_init+0xcd>
	outb(LATCH >> 8 , 0x40);	/* MSB */
    7610:	b0 2e                	mov    $0x2e,%al
    7612:	ee                   	out    %al,(%dx)
	set_intr_gate(0x20,&timer_interrupt);
    7613:	ba 42 77 00 00       	mov    $0x7742,%edx
    7618:	b8 00 00 08 00       	mov    $0x80000,%eax
    761d:	66 89 d0             	mov    %dx,%ax
    7620:	66 ba 00 8e          	mov    $0x8e00,%dx
    7624:	a3 b8 55 00 00       	mov    %eax,0x55b8
    7629:	89 15 bc 55 00 00    	mov    %edx,0x55bc
	outb(inb_p(0x21)&~0x01,0x21);
    762f:	ba 21 00 00 00       	mov    $0x21,%edx
    7634:	ec                   	in     (%dx),%al
    7635:	eb 00                	jmp    7637 <sched_init+0xf4>
    7637:	eb 00                	jmp    7639 <sched_init+0xf6>
    7639:	25 fe 00 00 00       	and    $0xfe,%eax
    763e:	ee                   	out    %al,(%dx)
	set_system_gate(0x80,&system_call);
    763f:	ba 6c 76 00 00       	mov    $0x766c,%edx
    7644:	b8 00 00 08 00       	mov    $0x80000,%eax
    7649:	66 89 d0             	mov    %dx,%ax
    764c:	66 ba 00 ef          	mov    $0xef00,%dx
    7650:	a3 b8 58 00 00       	mov    %eax,0x58b8
    7655:	89 15 bc 58 00 00    	mov    %edx,0x58bc
}
    765b:	c3                   	ret    

0000765c <bad_sys_call>:
    765c:	b8 ff ff ff ff       	mov    $0xffffffff,%eax
    7661:	cf                   	iret   

00007662 <reschedule>:
    7662:	68 a0 76 00 00       	push   $0x76a0
    7667:	e9 0f f4 ff ff       	jmp    6a7b <schedule>

0000766c <system_call>:
    766c:	83 f8 49             	cmp    $0x49,%eax
    766f:	77 eb                	ja     765c <bad_sys_call>
    7671:	1e                   	push   %ds
    7672:	06                   	push   %es
    7673:	0f a0                	push   %fs
    7675:	52                   	push   %edx
    7676:	51                   	push   %ecx
    7677:	53                   	push   %ebx
    7678:	ba 10 00 00 00       	mov    $0x10,%edx
    767d:	8e da                	mov    %edx,%ds
    767f:	8e c2                	mov    %edx,%es
    7681:	ba 17 00 00 00       	mov    $0x17,%edx
    7686:	8e e2                	mov    %edx,%fs
    7688:	ff 14 85 e0 aa 01 00 	call   *0x1aae0(,%eax,4)
    768f:	50                   	push   %eax
    7690:	a1 20 bc 01 00       	mov    0x1bc20,%eax
    7695:	83 38 00             	cmpl   $0x0,(%eax)
    7698:	75 c8                	jne    7662 <reschedule>
    769a:	83 78 04 00          	cmpl   $0x0,0x4(%eax)
    769e:	74 c2                	je     7662 <reschedule>

000076a0 <ret_from_sys_call>:
    76a0:	a1 20 bc 01 00       	mov    0x1bc20,%eax
    76a5:	3b 05 40 bc 01 00    	cmp    0x1bc40,%eax
    76ab:	74 30                	je     76dd <ret_from_sys_call+0x3d>
    76ad:	66 83 7c 24 20 0f    	cmpw   $0xf,0x20(%esp)
    76b3:	75 28                	jne    76dd <ret_from_sys_call+0x3d>
    76b5:	66 83 7c 24 2c 17    	cmpw   $0x17,0x2c(%esp)
    76bb:	75 20                	jne    76dd <ret_from_sys_call+0x3d>
    76bd:	8b 58 0c             	mov    0xc(%eax),%ebx
    76c0:	8b 88 10 02 00 00    	mov    0x210(%eax),%ecx
    76c6:	f7 d1                	not    %ecx
    76c8:	21 d9                	and    %ebx,%ecx
    76ca:	0f bc c9             	bsf    %ecx,%ecx
    76cd:	74 0e                	je     76dd <ret_from_sys_call+0x3d>
    76cf:	0f b3 cb             	btr    %ecx,%ebx
    76d2:	89 58 0c             	mov    %ebx,0xc(%eax)
    76d5:	41                   	inc    %ecx
    76d6:	51                   	push   %ecx
    76d7:	e8 67 20 00 00       	call   9743 <do_signal>
    76dc:	58                   	pop    %eax
    76dd:	58                   	pop    %eax
    76de:	5b                   	pop    %ebx
    76df:	59                   	pop    %ecx
    76e0:	5a                   	pop    %edx
    76e1:	0f a1                	pop    %fs
    76e3:	07                   	pop    %es
    76e4:	1f                   	pop    %ds
    76e5:	cf                   	iret   

000076e6 <coprocessor_error>:
    76e6:	1e                   	push   %ds
    76e7:	06                   	push   %es
    76e8:	0f a0                	push   %fs
    76ea:	52                   	push   %edx
    76eb:	51                   	push   %ecx
    76ec:	53                   	push   %ebx
    76ed:	50                   	push   %eax
    76ee:	b8 10 00 00 00       	mov    $0x10,%eax
    76f3:	8e d8                	mov    %eax,%ds
    76f5:	8e c0                	mov    %eax,%es
    76f7:	b8 17 00 00 00       	mov    $0x17,%eax
    76fc:	8e e0                	mov    %eax,%fs
    76fe:	68 a0 76 00 00       	push   $0x76a0
    7703:	e9 ae 0b 01 00       	jmp    182b6 <math_error>

00007708 <device_not_available>:
    7708:	1e                   	push   %ds
    7709:	06                   	push   %es
    770a:	0f a0                	push   %fs
    770c:	52                   	push   %edx
    770d:	51                   	push   %ecx
    770e:	53                   	push   %ebx
    770f:	50                   	push   %eax
    7710:	b8 10 00 00 00       	mov    $0x10,%eax
    7715:	8e d8                	mov    %eax,%ds
    7717:	8e c0                	mov    %eax,%es
    7719:	b8 17 00 00 00       	mov    $0x17,%eax
    771e:	8e e0                	mov    %eax,%fs
    7720:	68 a0 76 00 00       	push   $0x76a0
    7725:	0f 06                	clts   
    7727:	0f 20 c0             	mov    %cr0,%eax
    772a:	a9 04 00 00 00       	test   $0x4,%eax
    772f:	0f 84 02 f3 ff ff    	je     6a37 <math_state_restore>
    7735:	55                   	push   %ebp
    7736:	56                   	push   %esi
    7737:	57                   	push   %edi
    7738:	e8 0f 0b 01 00       	call   1824c <math_emulate>
    773d:	5f                   	pop    %edi
    773e:	5e                   	pop    %esi
    773f:	5d                   	pop    %ebp
    7740:	c3                   	ret    
    7741:	90                   	nop

00007742 <timer_interrupt>:
    7742:	1e                   	push   %ds
    7743:	06                   	push   %es
    7744:	0f a0                	push   %fs
    7746:	52                   	push   %edx
    7747:	51                   	push   %ecx
    7748:	53                   	push   %ebx
    7749:	50                   	push   %eax
    774a:	b8 10 00 00 00       	mov    $0x10,%eax
    774f:	8e d8                	mov    %eax,%ds
    7751:	8e c0                	mov    %eax,%es
    7753:	b8 17 00 00 00       	mov    $0x17,%eax
    7758:	8e e0                	mov    %eax,%fs
    775a:	ff 05 c0 e9 01 00    	incl   0x1e9c0
    7760:	b0 20                	mov    $0x20,%al
    7762:	e6 20                	out    %al,$0x20
    7764:	8b 44 24 20          	mov    0x20(%esp),%eax
    7768:	83 e0 03             	and    $0x3,%eax
    776b:	50                   	push   %eax
    776c:	e8 e7 fa ff ff       	call   7258 <do_timer>
    7771:	83 c4 04             	add    $0x4,%esp
    7774:	e9 27 ff ff ff       	jmp    76a0 <ret_from_sys_call>
    7779:	90                   	nop

0000777a <sys_execve>:
    777a:	8d 44 24 1c          	lea    0x1c(%esp),%eax
    777e:	50                   	push   %eax
    777f:	e8 93 6e 00 00       	call   e617 <do_execve>
    7784:	83 c4 04             	add    $0x4,%esp
    7787:	c3                   	ret    

00007788 <sys_fork>:
    7788:	e8 2d 0b 00 00       	call   82ba <find_empty_process>
    778d:	85 c0                	test   %eax,%eax
    778f:	78 0e                	js     779f <sys_fork+0x17>
    7791:	0f a8                	push   %gs
    7793:	56                   	push   %esi
    7794:	57                   	push   %edi
    7795:	55                   	push   %ebp
    7796:	50                   	push   %eax
    7797:	e8 23 08 00 00       	call   7fbf <copy_process>
    779c:	83 c4 14             	add    $0x14,%esp
    779f:	c3                   	ret    

000077a0 <hd_interrupt>:
    77a0:	50                   	push   %eax
    77a1:	51                   	push   %ecx
    77a2:	52                   	push   %edx
    77a3:	1e                   	push   %ds
    77a4:	06                   	push   %es
    77a5:	0f a0                	push   %fs
    77a7:	b8 10 00 00 00       	mov    $0x10,%eax
    77ac:	8e d8                	mov    %eax,%ds
    77ae:	8e c0                	mov    %eax,%es
    77b0:	b8 17 00 00 00       	mov    $0x17,%eax
    77b5:	8e e0                	mov    %eax,%fs
    77b7:	b0 20                	mov    $0x20,%al
    77b9:	e6 a0                	out    %al,$0xa0
    77bb:	eb 00                	jmp    77bd <hd_interrupt+0x1d>
    77bd:	eb 00                	jmp    77bf <hd_interrupt+0x1f>
    77bf:	31 d2                	xor    %edx,%edx
    77c1:	87 15 00 0c 02 00    	xchg   %edx,0x20c00
    77c7:	85 d2                	test   %edx,%edx
    77c9:	75 05                	jne    77d0 <hd_interrupt+0x30>
    77cb:	ba d7 42 01 00       	mov    $0x142d7,%edx
    77d0:	e6 20                	out    %al,$0x20
    77d2:	ff d2                	call   *%edx
    77d4:	0f a1                	pop    %fs
    77d6:	07                   	pop    %es
    77d7:	1f                   	pop    %ds
    77d8:	5a                   	pop    %edx
    77d9:	59                   	pop    %ecx
    77da:	58                   	pop    %eax
    77db:	cf                   	iret   

000077dc <floppy_interrupt>:
    77dc:	50                   	push   %eax
    77dd:	51                   	push   %ecx
    77de:	52                   	push   %edx
    77df:	1e                   	push   %ds
    77e0:	06                   	push   %es
    77e1:	0f a0                	push   %fs
    77e3:	b8 10 00 00 00       	mov    $0x10,%eax
    77e8:	8e d8                	mov    %eax,%ds
    77ea:	8e c0                	mov    %eax,%es
    77ec:	b8 17 00 00 00       	mov    $0x17,%eax
    77f1:	8e e0                	mov    %eax,%fs
    77f3:	b0 20                	mov    $0x20,%al
    77f5:	e6 20                	out    %al,$0x20
    77f7:	31 c0                	xor    %eax,%eax
    77f9:	87 05 d8 0b 02 00    	xchg   %eax,0x20bd8
    77ff:	85 c0                	test   %eax,%eax
    7801:	75 05                	jne    7808 <floppy_interrupt+0x2c>
    7803:	b8 d1 36 01 00       	mov    $0x136d1,%eax
    7808:	ff d0                	call   *%eax
    780a:	0f a1                	pop    %fs
    780c:	07                   	pop    %es
    780d:	1f                   	pop    %ds
    780e:	5a                   	pop    %edx
    780f:	59                   	pop    %ecx
    7810:	58                   	pop    %eax
    7811:	cf                   	iret   

00007812 <parallel_interrupt>:
    7812:	50                   	push   %eax
    7813:	b0 20                	mov    $0x20,%al
    7815:	e6 20                	out    %al,$0x20
    7817:	58                   	pop    %eax
    7818:	cf                   	iret   

00007819 <die>:
void reserved(void);
void parallel_interrupt(void);
void irq13(void);

static void die(char * str,long esp_ptr,long nr)
{
    7819:	57                   	push   %edi
    781a:	56                   	push   %esi
    781b:	53                   	push   %ebx
	long * esp = (long *) esp_ptr;
    781c:	8b 74 24 14          	mov    0x14(%esp),%esi
	int i;

	printk("%s: %04x\n\r",str,nr&0xffff);
    7820:	83 ec 04             	sub    $0x4,%esp
    7823:	0f b7 44 24 1c       	movzwl 0x1c(%esp),%eax
    7828:	50                   	push   %eax
    7829:	ff 74 24 18          	pushl  0x18(%esp)
    782d:	68 1a 88 01 00       	push   $0x1881a
    7832:	e8 1c 0b 00 00       	call   8353 <printk>
	printk("EIP:\t%04x:%p\nEFLAGS:\t%p\nESP:\t%04x:%p\n",
    7837:	83 c4 08             	add    $0x8,%esp
    783a:	ff 76 0c             	pushl  0xc(%esi)
    783d:	ff 76 10             	pushl  0x10(%esi)
    7840:	ff 76 08             	pushl  0x8(%esi)
    7843:	ff 36                	pushl  (%esi)
    7845:	ff 76 04             	pushl  0x4(%esi)
    7848:	68 fc 89 01 00       	push   $0x189fc
    784d:	e8 01 0b 00 00       	call   8353 <printk>
		esp[1],esp[0],esp[2],esp[4],esp[3]);
	printk("fs: %04x\n",_fs());
    7852:	83 c4 18             	add    $0x18,%esp
    7855:	66 8c e0             	mov    %fs,%ax
    7858:	0f b7 c0             	movzwl %ax,%eax
    785b:	50                   	push   %eax
    785c:	68 25 88 01 00       	push   $0x18825
    7861:	e8 ed 0a 00 00       	call   8353 <printk>
	printk("base: %p, limit: %p\n",get_base(current->ldt[1]),get_limit(0x17));
    7866:	83 c4 0c             	add    $0xc,%esp
    7869:	ba 17 00 00 00       	mov    $0x17,%edx
    786e:	0f 03 ca             	lsl    %dx,%ecx
    7871:	41                   	inc    %ecx
        :"memory"); \
__base;})
**/

static inline unsigned long _get_base(char * addr)
{
    7872:	a1 20 bc 01 00       	mov    0x1bc20,%eax
    7877:	05 d8 02 00 00       	add    $0x2d8,%eax
         unsigned long __base;
         __asm__("movb %3,%%dh\n\t"
    787c:	8a 70 07             	mov    0x7(%eax),%dh
    787f:	8a 50 04             	mov    0x4(%eax),%dl
    7882:	c1 e2 10             	shl    $0x10,%edx
    7885:	66 8b 50 02          	mov    0x2(%eax),%dx
{
    7889:	51                   	push   %ecx
    788a:	52                   	push   %edx
    788b:	68 2f 88 01 00       	push   $0x1882f
    7890:	e8 be 0a 00 00       	call   8353 <printk>
	if (esp[4] == 0x17) {
    7895:	83 c4 10             	add    $0x10,%esp
    7898:	83 7e 10 17          	cmpl   $0x17,0x10(%esi)
    789c:	75 50                	jne    78ee <die+0xd5>
		printk("Stack: ");
    789e:	83 ec 0c             	sub    $0xc,%esp
    78a1:	68 44 88 01 00       	push   $0x18844
    78a6:	e8 a8 0a 00 00       	call   8353 <printk>
		for (i=0;i<4;i++)
    78ab:	bb 00 00 00 00       	mov    $0x0,%ebx
    78b0:	83 c4 10             	add    $0x10,%esp
    78b3:	bf 17 00 00 00       	mov    $0x17,%edi
			printk("%p ",get_seg_long(0x17,i+(long *)esp[3]));
    78b8:	8b 56 0c             	mov    0xc(%esi),%edx
    78bb:	89 f8                	mov    %edi,%eax
    78bd:	0f a0                	push   %fs
    78bf:	8e e0                	mov    %eax,%fs
    78c1:	64 8b 04 9a          	mov    %fs:(%edx,%ebx,4),%eax
    78c5:	0f a1                	pop    %fs
    78c7:	83 ec 08             	sub    $0x8,%esp
    78ca:	50                   	push   %eax
    78cb:	68 4c 88 01 00       	push   $0x1884c
    78d0:	e8 7e 0a 00 00       	call   8353 <printk>
		for (i=0;i<4;i++)
    78d5:	83 c4 10             	add    $0x10,%esp
    78d8:	43                   	inc    %ebx
    78d9:	83 fb 03             	cmp    $0x3,%ebx
    78dc:	7e da                	jle    78b8 <die+0x9f>
		printk("\n");
    78de:	83 ec 0c             	sub    $0xc,%esp
    78e1:	68 80 86 01 00       	push   $0x18680
    78e6:	e8 68 0a 00 00       	call   8353 <printk>
    78eb:	83 c4 10             	add    $0x10,%esp
	}
	str(i);
    78ee:	ba 00 00 00 00       	mov    $0x0,%edx
    78f3:	89 d0                	mov    %edx,%eax
    78f5:	66 0f 00 c8          	str    %ax
    78f9:	83 e8 20             	sub    $0x20,%eax
    78fc:	c1 e8 04             	shr    $0x4,%eax
	printk("Pid: %d, process nr: %d\n\r",current->pid,0xffff & i);
    78ff:	83 ec 04             	sub    $0x4,%esp
    7902:	25 ff ff 00 00       	and    $0xffff,%eax
    7907:	50                   	push   %eax
    7908:	a1 20 bc 01 00       	mov    0x1bc20,%eax
    790d:	ff b0 2c 02 00 00    	pushl  0x22c(%eax)
    7913:	68 50 88 01 00       	push   $0x18850
    7918:	e8 36 0a 00 00       	call   8353 <printk>
	for(i=0;i<10;i++)
    791d:	bb 00 00 00 00       	mov    $0x0,%ebx
    7922:	83 c4 10             	add    $0x10,%esp
		printk("%02x ",0xff & get_seg_byte(esp[1],(i+(char *)esp[0])));
    7925:	8b 56 04             	mov    0x4(%esi),%edx
    7928:	8b 0e                	mov    (%esi),%ecx
    792a:	89 d0                	mov    %edx,%eax
    792c:	0f a0                	push   %fs
    792e:	8e e0                	mov    %eax,%fs
    7930:	64 8a 04 19          	mov    %fs:(%ecx,%ebx,1),%al
    7934:	0f a1                	pop    %fs
    7936:	0f b6 c0             	movzbl %al,%eax
    7939:	83 ec 08             	sub    $0x8,%esp
    793c:	50                   	push   %eax
    793d:	68 6a 88 01 00       	push   $0x1886a
    7942:	e8 0c 0a 00 00       	call   8353 <printk>
	for(i=0;i<10;i++)
    7947:	83 c4 10             	add    $0x10,%esp
    794a:	43                   	inc    %ebx
    794b:	83 fb 09             	cmp    $0x9,%ebx
    794e:	7e d5                	jle    7925 <die+0x10c>
	printk("\n\r");
    7950:	83 ec 0c             	sub    $0xc,%esp
    7953:	68 e0 8c 01 00       	push   $0x18ce0
    7958:	e8 f6 09 00 00       	call   8353 <printk>
	do_exit(11);		/* play segment exception */
    795d:	c7 04 24 0b 00 00 00 	movl   $0xb,(%esp)
    7964:	e8 72 17 00 00       	call   90db <do_exit>
    7969:	83 c4 10             	add    $0x10,%esp
}
    796c:	5b                   	pop    %ebx
    796d:	5e                   	pop    %esi
    796e:	5f                   	pop    %edi
    796f:	c3                   	ret    

00007970 <do_double_fault>:

void do_double_fault(long esp, long error_code)
{
    7970:	83 ec 10             	sub    $0x10,%esp
	die("double fault",esp,error_code);
    7973:	ff 74 24 18          	pushl  0x18(%esp)
    7977:	ff 74 24 18          	pushl  0x18(%esp)
    797b:	68 70 88 01 00       	push   $0x18870
    7980:	e8 94 fe ff ff       	call   7819 <die>
}
    7985:	83 c4 1c             	add    $0x1c,%esp
    7988:	c3                   	ret    

00007989 <do_general_protection>:

void do_general_protection(long esp, long error_code)
{
    7989:	83 ec 10             	sub    $0x10,%esp
	die("general protection",esp,error_code);
    798c:	ff 74 24 18          	pushl  0x18(%esp)
    7990:	ff 74 24 18          	pushl  0x18(%esp)
    7994:	68 7d 88 01 00       	push   $0x1887d
    7999:	e8 7b fe ff ff       	call   7819 <die>
}
    799e:	83 c4 1c             	add    $0x1c,%esp
    79a1:	c3                   	ret    

000079a2 <do_divide_error>:

void do_divide_error(long esp, long error_code)
{
    79a2:	83 ec 10             	sub    $0x10,%esp
	die("divide error",esp,error_code);
    79a5:	ff 74 24 18          	pushl  0x18(%esp)
    79a9:	ff 74 24 18          	pushl  0x18(%esp)
    79ad:	68 90 88 01 00       	push   $0x18890
    79b2:	e8 62 fe ff ff       	call   7819 <die>
}
    79b7:	83 c4 1c             	add    $0x1c,%esp
    79ba:	c3                   	ret    

000079bb <do_int3>:

void do_int3(long * esp, long error_code,
		long fs,long es,long ds,
		long ebp,long esi,long edi,
		long edx,long ecx,long ebx,long eax)
{
    79bb:	56                   	push   %esi
    79bc:	53                   	push   %ebx
    79bd:	83 ec 10             	sub    $0x10,%esp
    79c0:	8b 74 24 1c          	mov    0x1c(%esp),%esi
	int tr;

	__asm__("str %%ax":"=a" (tr):"0" (0));
    79c4:	bb 00 00 00 00       	mov    $0x0,%ebx
    79c9:	89 d8                	mov    %ebx,%eax
    79cb:	66 0f 00 c8          	str    %ax
    79cf:	89 c3                	mov    %eax,%ebx
	printk("eax\t\tebx\t\tecx\t\tedx\n\r%8x\t%8x\t%8x\t%8x\n\r",
    79d1:	ff 74 24 3c          	pushl  0x3c(%esp)
    79d5:	ff 74 24 44          	pushl  0x44(%esp)
    79d9:	ff 74 24 4c          	pushl  0x4c(%esp)
    79dd:	ff 74 24 54          	pushl  0x54(%esp)
    79e1:	68 24 8a 01 00       	push   $0x18a24
    79e6:	e8 68 09 00 00       	call   8353 <printk>
		eax,ebx,ecx,edx);
	printk("esi\t\tedi\t\tebp\t\tesp\n\r%8x\t%8x\t%8x\t%8x\n\r",
    79eb:	83 c4 14             	add    $0x14,%esp
    79ee:	56                   	push   %esi
    79ef:	ff 74 24 34          	pushl  0x34(%esp)
    79f3:	ff 74 24 40          	pushl  0x40(%esp)
    79f7:	ff 74 24 40          	pushl  0x40(%esp)
    79fb:	68 4c 8a 01 00       	push   $0x18a4c
    7a00:	e8 4e 09 00 00       	call   8353 <printk>
		esi,edi,ebp,(long) esp);
	printk("\n\rds\tes\tfs\ttr\n\r%4x\t%4x\t%4x\t%4x\n\r",
    7a05:	83 c4 14             	add    $0x14,%esp
    7a08:	53                   	push   %ebx
    7a09:	ff 74 24 28          	pushl  0x28(%esp)
    7a0d:	ff 74 24 30          	pushl  0x30(%esp)
    7a11:	ff 74 24 38          	pushl  0x38(%esp)
    7a15:	68 74 8a 01 00       	push   $0x18a74
    7a1a:	e8 34 09 00 00       	call   8353 <printk>
		ds,es,fs,tr);
	printk("EIP: %8x   CS: %4x  EFLAGS: %8x\n\r",esp[0],esp[1],esp[2]);
    7a1f:	83 c4 20             	add    $0x20,%esp
    7a22:	ff 76 08             	pushl  0x8(%esi)
    7a25:	ff 76 04             	pushl  0x4(%esi)
    7a28:	ff 36                	pushl  (%esi)
    7a2a:	68 98 8a 01 00       	push   $0x18a98
    7a2f:	e8 1f 09 00 00       	call   8353 <printk>
}
    7a34:	83 c4 14             	add    $0x14,%esp
    7a37:	5b                   	pop    %ebx
    7a38:	5e                   	pop    %esi
    7a39:	c3                   	ret    

00007a3a <do_nmi>:

void do_nmi(long esp, long error_code)
{
    7a3a:	83 ec 10             	sub    $0x10,%esp
	die("nmi",esp,error_code);
    7a3d:	ff 74 24 18          	pushl  0x18(%esp)
    7a41:	ff 74 24 18          	pushl  0x18(%esp)
    7a45:	68 9d 88 01 00       	push   $0x1889d
    7a4a:	e8 ca fd ff ff       	call   7819 <die>
}
    7a4f:	83 c4 1c             	add    $0x1c,%esp
    7a52:	c3                   	ret    

00007a53 <do_debug>:

void do_debug(long esp, long error_code)
{
    7a53:	83 ec 10             	sub    $0x10,%esp
	die("debug",esp,error_code);
    7a56:	ff 74 24 18          	pushl  0x18(%esp)
    7a5a:	ff 74 24 18          	pushl  0x18(%esp)
    7a5e:	68 a1 88 01 00       	push   $0x188a1
    7a63:	e8 b1 fd ff ff       	call   7819 <die>
}
    7a68:	83 c4 1c             	add    $0x1c,%esp
    7a6b:	c3                   	ret    

00007a6c <do_overflow>:

void do_overflow(long esp, long error_code)
{
    7a6c:	83 ec 10             	sub    $0x10,%esp
	die("overflow",esp,error_code);
    7a6f:	ff 74 24 18          	pushl  0x18(%esp)
    7a73:	ff 74 24 18          	pushl  0x18(%esp)
    7a77:	68 a7 88 01 00       	push   $0x188a7
    7a7c:	e8 98 fd ff ff       	call   7819 <die>
}
    7a81:	83 c4 1c             	add    $0x1c,%esp
    7a84:	c3                   	ret    

00007a85 <do_bounds>:

void do_bounds(long esp, long error_code)
{
    7a85:	83 ec 10             	sub    $0x10,%esp
	die("bounds",esp,error_code);
    7a88:	ff 74 24 18          	pushl  0x18(%esp)
    7a8c:	ff 74 24 18          	pushl  0x18(%esp)
    7a90:	68 b0 88 01 00       	push   $0x188b0
    7a95:	e8 7f fd ff ff       	call   7819 <die>
}
    7a9a:	83 c4 1c             	add    $0x1c,%esp
    7a9d:	c3                   	ret    

00007a9e <do_invalid_op>:

void do_invalid_op(long esp, long error_code)
{
    7a9e:	83 ec 10             	sub    $0x10,%esp
	die("invalid operand",esp,error_code);
    7aa1:	ff 74 24 18          	pushl  0x18(%esp)
    7aa5:	ff 74 24 18          	pushl  0x18(%esp)
    7aa9:	68 b7 88 01 00       	push   $0x188b7
    7aae:	e8 66 fd ff ff       	call   7819 <die>
}
    7ab3:	83 c4 1c             	add    $0x1c,%esp
    7ab6:	c3                   	ret    

00007ab7 <do_device_not_available>:

void do_device_not_available(long esp, long error_code)
{
    7ab7:	83 ec 10             	sub    $0x10,%esp
	die("device not available",esp,error_code);
    7aba:	ff 74 24 18          	pushl  0x18(%esp)
    7abe:	ff 74 24 18          	pushl  0x18(%esp)
    7ac2:	68 c7 88 01 00       	push   $0x188c7
    7ac7:	e8 4d fd ff ff       	call   7819 <die>
}
    7acc:	83 c4 1c             	add    $0x1c,%esp
    7acf:	c3                   	ret    

00007ad0 <do_coprocessor_segment_overrun>:

void do_coprocessor_segment_overrun(long esp, long error_code)
{
    7ad0:	83 ec 10             	sub    $0x10,%esp
	die("coprocessor segment overrun",esp,error_code);
    7ad3:	ff 74 24 18          	pushl  0x18(%esp)
    7ad7:	ff 74 24 18          	pushl  0x18(%esp)
    7adb:	68 dc 88 01 00       	push   $0x188dc
    7ae0:	e8 34 fd ff ff       	call   7819 <die>
}
    7ae5:	83 c4 1c             	add    $0x1c,%esp
    7ae8:	c3                   	ret    

00007ae9 <do_invalid_TSS>:

void do_invalid_TSS(long esp,long error_code)
{
    7ae9:	83 ec 10             	sub    $0x10,%esp
	die("invalid TSS",esp,error_code);
    7aec:	ff 74 24 18          	pushl  0x18(%esp)
    7af0:	ff 74 24 18          	pushl  0x18(%esp)
    7af4:	68 f8 88 01 00       	push   $0x188f8
    7af9:	e8 1b fd ff ff       	call   7819 <die>
}
    7afe:	83 c4 1c             	add    $0x1c,%esp
    7b01:	c3                   	ret    

00007b02 <do_segment_not_present>:

void do_segment_not_present(long esp,long error_code)
{
    7b02:	83 ec 10             	sub    $0x10,%esp
	die("segment not present",esp,error_code);
    7b05:	ff 74 24 18          	pushl  0x18(%esp)
    7b09:	ff 74 24 18          	pushl  0x18(%esp)
    7b0d:	68 04 89 01 00       	push   $0x18904
    7b12:	e8 02 fd ff ff       	call   7819 <die>
}
    7b17:	83 c4 1c             	add    $0x1c,%esp
    7b1a:	c3                   	ret    

00007b1b <do_stack_segment>:

void do_stack_segment(long esp,long error_code)
{
    7b1b:	83 ec 10             	sub    $0x10,%esp
	die("stack segment",esp,error_code);
    7b1e:	ff 74 24 18          	pushl  0x18(%esp)
    7b22:	ff 74 24 18          	pushl  0x18(%esp)
    7b26:	68 18 89 01 00       	push   $0x18918
    7b2b:	e8 e9 fc ff ff       	call   7819 <die>
}
    7b30:	83 c4 1c             	add    $0x1c,%esp
    7b33:	c3                   	ret    

00007b34 <do_coprocessor_error>:

void do_coprocessor_error(long esp, long error_code)
{
    7b34:	83 ec 0c             	sub    $0xc,%esp
	if (last_task_used_math != current)
    7b37:	a1 c8 e9 01 00       	mov    0x1e9c8,%eax
    7b3c:	3b 05 20 bc 01 00    	cmp    0x1bc20,%eax
    7b42:	75 18                	jne    7b5c <do_coprocessor_error+0x28>
		return;
	die("coprocessor error",esp,error_code);
    7b44:	83 ec 04             	sub    $0x4,%esp
    7b47:	ff 74 24 18          	pushl  0x18(%esp)
    7b4b:	ff 74 24 18          	pushl  0x18(%esp)
    7b4f:	68 26 89 01 00       	push   $0x18926
    7b54:	e8 c0 fc ff ff       	call   7819 <die>
    7b59:	83 c4 10             	add    $0x10,%esp
}
    7b5c:	83 c4 0c             	add    $0xc,%esp
    7b5f:	c3                   	ret    

00007b60 <do_reserved>:

void do_reserved(long esp, long error_code)
{
    7b60:	83 ec 10             	sub    $0x10,%esp
	die("reserved (15,17-47) error",esp,error_code);
    7b63:	ff 74 24 18          	pushl  0x18(%esp)
    7b67:	ff 74 24 18          	pushl  0x18(%esp)
    7b6b:	68 38 89 01 00       	push   $0x18938
    7b70:	e8 a4 fc ff ff       	call   7819 <die>
}
    7b75:	83 c4 1c             	add    $0x1c,%esp
    7b78:	c3                   	ret    

00007b79 <trap_init>:

void trap_init(void)
{
    7b79:	55                   	push   %ebp
    7b7a:	57                   	push   %edi
    7b7b:	56                   	push   %esi
    7b7c:	53                   	push   %ebx
	int i;

	set_trap_gate(0,&divide_error);
    7b7d:	ba 97 7d 00 00       	mov    $0x7d97,%edx
    7b82:	b8 00 00 08 00       	mov    $0x80000,%eax
    7b87:	66 89 d0             	mov    %dx,%ax
    7b8a:	66 ba 00 8f          	mov    $0x8f00,%dx
    7b8e:	a3 b8 54 00 00       	mov    %eax,0x54b8
    7b93:	89 15 bc 54 00 00    	mov    %edx,0x54bc
	set_trap_gate(1,&debug);
    7b99:	ba cc 7d 00 00       	mov    $0x7dcc,%edx
    7b9e:	66 89 d0             	mov    %dx,%ax
    7ba1:	66 ba 00 8f          	mov    $0x8f00,%dx
    7ba5:	a3 c0 54 00 00       	mov    %eax,0x54c0
    7baa:	89 15 c4 54 00 00    	mov    %edx,0x54c4
	set_trap_gate(2,&nmi);
    7bb0:	ba d3 7d 00 00       	mov    $0x7dd3,%edx
    7bb5:	66 89 d0             	mov    %dx,%ax
    7bb8:	66 ba 00 8f          	mov    $0x8f00,%dx
    7bbc:	a3 c8 54 00 00       	mov    %eax,0x54c8
    7bc1:	89 15 cc 54 00 00    	mov    %edx,0x54cc
	set_system_gate(3,&int3);	/* int3-5 can be called from all */
    7bc7:	ba da 7d 00 00       	mov    $0x7dda,%edx
    7bcc:	66 89 d0             	mov    %dx,%ax
    7bcf:	66 ba 00 ef          	mov    $0xef00,%dx
    7bd3:	a3 d0 54 00 00       	mov    %eax,0x54d0
    7bd8:	89 15 d4 54 00 00    	mov    %edx,0x54d4
	set_system_gate(4,&overflow);
    7bde:	ba e1 7d 00 00       	mov    $0x7de1,%edx
    7be3:	66 89 d0             	mov    %dx,%ax
    7be6:	66 ba 00 ef          	mov    $0xef00,%dx
    7bea:	a3 d8 54 00 00       	mov    %eax,0x54d8
    7bef:	89 15 dc 54 00 00    	mov    %edx,0x54dc
	set_system_gate(5,&bounds);
    7bf5:	ba e8 7d 00 00       	mov    $0x7de8,%edx
    7bfa:	66 89 d0             	mov    %dx,%ax
    7bfd:	66 ba 00 ef          	mov    $0xef00,%dx
    7c01:	a3 e0 54 00 00       	mov    %eax,0x54e0
    7c06:	89 15 e4 54 00 00    	mov    %edx,0x54e4
	set_trap_gate(6,&invalid_op);
    7c0c:	ba ef 7d 00 00       	mov    $0x7def,%edx
    7c11:	66 89 d0             	mov    %dx,%ax
    7c14:	66 ba 00 8f          	mov    $0x8f00,%dx
    7c18:	a3 e8 54 00 00       	mov    %eax,0x54e8
    7c1d:	89 15 ec 54 00 00    	mov    %edx,0x54ec
	set_trap_gate(7,&device_not_available);
    7c23:	ba 08 77 00 00       	mov    $0x7708,%edx
    7c28:	66 89 d0             	mov    %dx,%ax
    7c2b:	66 ba 00 8f          	mov    $0x8f00,%dx
    7c2f:	a3 f0 54 00 00       	mov    %eax,0x54f0
    7c34:	89 15 f4 54 00 00    	mov    %edx,0x54f4
	set_trap_gate(8,&double_fault);
    7c3a:	ba 19 7e 00 00       	mov    $0x7e19,%edx
    7c3f:	66 89 d0             	mov    %dx,%ax
    7c42:	66 ba 00 8f          	mov    $0x8f00,%dx
    7c46:	a3 f8 54 00 00       	mov    %eax,0x54f8
    7c4b:	89 15 fc 54 00 00    	mov    %edx,0x54fc
	set_trap_gate(9,&coprocessor_segment_overrun);
    7c51:	ba f6 7d 00 00       	mov    $0x7df6,%edx
    7c56:	66 89 d0             	mov    %dx,%ax
    7c59:	66 ba 00 8f          	mov    $0x8f00,%dx
    7c5d:	a3 00 55 00 00       	mov    %eax,0x5500
    7c62:	89 15 04 55 00 00    	mov    %edx,0x5504
	set_trap_gate(10,&invalid_TSS);
    7c68:	ba 50 7e 00 00       	mov    $0x7e50,%edx
    7c6d:	66 89 d0             	mov    %dx,%ax
    7c70:	66 ba 00 8f          	mov    $0x8f00,%dx
    7c74:	a3 08 55 00 00       	mov    %eax,0x5508
    7c79:	89 15 0c 55 00 00    	mov    %edx,0x550c
	set_trap_gate(11,&segment_not_present);
    7c7f:	ba 57 7e 00 00       	mov    $0x7e57,%edx
    7c84:	66 89 d0             	mov    %dx,%ax
    7c87:	66 ba 00 8f          	mov    $0x8f00,%dx
    7c8b:	a3 10 55 00 00       	mov    %eax,0x5510
    7c90:	89 15 14 55 00 00    	mov    %edx,0x5514
	set_trap_gate(12,&stack_segment);
    7c96:	ba 5e 7e 00 00       	mov    $0x7e5e,%edx
    7c9b:	66 89 d0             	mov    %dx,%ax
    7c9e:	66 ba 00 8f          	mov    $0x8f00,%dx
    7ca2:	a3 18 55 00 00       	mov    %eax,0x5518
    7ca7:	89 15 1c 55 00 00    	mov    %edx,0x551c
	set_trap_gate(13,&general_protection);
    7cad:	ba 65 7e 00 00       	mov    $0x7e65,%edx
    7cb2:	66 89 d0             	mov    %dx,%ax
    7cb5:	66 ba 00 8f          	mov    $0x8f00,%dx
    7cb9:	a3 20 55 00 00       	mov    %eax,0x5520
    7cbe:	89 15 24 55 00 00    	mov    %edx,0x5524
	set_trap_gate(14,&page_fault);
    7cc4:	ba a9 a6 00 00       	mov    $0xa6a9,%edx
    7cc9:	66 89 d0             	mov    %dx,%ax
    7ccc:	66 ba 00 8f          	mov    $0x8f00,%dx
    7cd0:	a3 28 55 00 00       	mov    %eax,0x5528
    7cd5:	89 15 2c 55 00 00    	mov    %edx,0x552c
	set_trap_gate(15,&reserved);
    7cdb:	ba fd 7d 00 00       	mov    $0x7dfd,%edx
    7ce0:	66 89 d0             	mov    %dx,%ax
    7ce3:	66 ba 00 8f          	mov    $0x8f00,%dx
    7ce7:	a3 30 55 00 00       	mov    %eax,0x5530
    7cec:	89 15 34 55 00 00    	mov    %edx,0x5534
	set_trap_gate(16,&coprocessor_error);
    7cf2:	ba e6 76 00 00       	mov    $0x76e6,%edx
    7cf7:	66 89 d0             	mov    %dx,%ax
    7cfa:	66 ba 00 8f          	mov    $0x8f00,%dx
    7cfe:	a3 38 55 00 00       	mov    %eax,0x5538
    7d03:	89 15 3c 55 00 00    	mov    %edx,0x553c
	for (i=17;i<48;i++)
    7d09:	bf 11 00 00 00       	mov    $0x11,%edi
    7d0e:	be b8 54 00 00       	mov    $0x54b8,%esi
    7d13:	bb bc 54 00 00       	mov    $0x54bc,%ebx
    7d18:	b9 fd 7d 00 00       	mov    $0x7dfd,%ecx
    7d1d:	bd 00 00 08 00       	mov    $0x80000,%ebp
		set_trap_gate(i,&reserved);
    7d22:	89 ca                	mov    %ecx,%edx
    7d24:	89 e8                	mov    %ebp,%eax
    7d26:	66 89 d0             	mov    %dx,%ax
    7d29:	66 ba 00 8f          	mov    $0x8f00,%dx
    7d2d:	89 04 fe             	mov    %eax,(%esi,%edi,8)
    7d30:	89 14 fb             	mov    %edx,(%ebx,%edi,8)
	for (i=17;i<48;i++)
    7d33:	47                   	inc    %edi
    7d34:	83 ff 2f             	cmp    $0x2f,%edi
    7d37:	7e e9                	jle    7d22 <trap_init+0x1a9>
	set_trap_gate(45,&irq13);
    7d39:	ba 04 7e 00 00       	mov    $0x7e04,%edx
    7d3e:	b8 00 00 08 00       	mov    $0x80000,%eax
    7d43:	66 89 d0             	mov    %dx,%ax
    7d46:	66 ba 00 8f          	mov    $0x8f00,%dx
    7d4a:	a3 20 56 00 00       	mov    %eax,0x5620
    7d4f:	89 15 24 56 00 00    	mov    %edx,0x5624
	outb_p(inb_p(0x21)&0xfb,0x21);
    7d55:	ba 21 00 00 00       	mov    $0x21,%edx
    7d5a:	ec                   	in     (%dx),%al
    7d5b:	eb 00                	jmp    7d5d <trap_init+0x1e4>
    7d5d:	eb 00                	jmp    7d5f <trap_init+0x1e6>
    7d5f:	25 fb 00 00 00       	and    $0xfb,%eax
    7d64:	ee                   	out    %al,(%dx)
    7d65:	eb 00                	jmp    7d67 <trap_init+0x1ee>
    7d67:	eb 00                	jmp    7d69 <trap_init+0x1f0>
	outb(inb_p(0xA1)&0xdf,0xA1);
    7d69:	b2 a1                	mov    $0xa1,%dl
    7d6b:	ec                   	in     (%dx),%al
    7d6c:	eb 00                	jmp    7d6e <trap_init+0x1f5>
    7d6e:	eb 00                	jmp    7d70 <trap_init+0x1f7>
    7d70:	25 df 00 00 00       	and    $0xdf,%eax
    7d75:	ee                   	out    %al,(%dx)
	set_trap_gate(39,&parallel_interrupt);
    7d76:	ba 12 78 00 00       	mov    $0x7812,%edx
    7d7b:	b8 00 00 08 00       	mov    $0x80000,%eax
    7d80:	66 89 d0             	mov    %dx,%ax
    7d83:	66 ba 00 8f          	mov    $0x8f00,%dx
    7d87:	a3 f0 55 00 00       	mov    %eax,0x55f0
    7d8c:	89 15 f4 55 00 00    	mov    %edx,0x55f4
}
    7d92:	5b                   	pop    %ebx
    7d93:	5e                   	pop    %esi
    7d94:	5f                   	pop    %edi
    7d95:	5d                   	pop    %ebp
    7d96:	c3                   	ret    

00007d97 <divide_error>:
    7d97:	68 a2 79 00 00       	push   $0x79a2

00007d9c <no_error_code>:
    7d9c:	87 04 24             	xchg   %eax,(%esp)
    7d9f:	53                   	push   %ebx
    7da0:	51                   	push   %ecx
    7da1:	52                   	push   %edx
    7da2:	57                   	push   %edi
    7da3:	56                   	push   %esi
    7da4:	55                   	push   %ebp
    7da5:	1e                   	push   %ds
    7da6:	06                   	push   %es
    7da7:	0f a0                	push   %fs
    7da9:	6a 00                	push   $0x0
    7dab:	8d 54 24 2c          	lea    0x2c(%esp),%edx
    7daf:	52                   	push   %edx
    7db0:	ba 10 00 00 00       	mov    $0x10,%edx
    7db5:	8e da                	mov    %edx,%ds
    7db7:	8e c2                	mov    %edx,%es
    7db9:	8e e2                	mov    %edx,%fs
    7dbb:	ff d0                	call   *%eax
    7dbd:	83 c4 08             	add    $0x8,%esp
    7dc0:	0f a1                	pop    %fs
    7dc2:	07                   	pop    %es
    7dc3:	1f                   	pop    %ds
    7dc4:	5d                   	pop    %ebp
    7dc5:	5e                   	pop    %esi
    7dc6:	5f                   	pop    %edi
    7dc7:	5a                   	pop    %edx
    7dc8:	59                   	pop    %ecx
    7dc9:	5b                   	pop    %ebx
    7dca:	58                   	pop    %eax
    7dcb:	cf                   	iret   

00007dcc <debug>:
    7dcc:	68 bb 79 00 00       	push   $0x79bb
    7dd1:	eb c9                	jmp    7d9c <no_error_code>

00007dd3 <nmi>:
    7dd3:	68 3a 7a 00 00       	push   $0x7a3a
    7dd8:	eb c2                	jmp    7d9c <no_error_code>

00007dda <int3>:
    7dda:	68 bb 79 00 00       	push   $0x79bb
    7ddf:	eb bb                	jmp    7d9c <no_error_code>

00007de1 <overflow>:
    7de1:	68 6c 7a 00 00       	push   $0x7a6c
    7de6:	eb b4                	jmp    7d9c <no_error_code>

00007de8 <bounds>:
    7de8:	68 85 7a 00 00       	push   $0x7a85
    7ded:	eb ad                	jmp    7d9c <no_error_code>

00007def <invalid_op>:
    7def:	68 9e 7a 00 00       	push   $0x7a9e
    7df4:	eb a6                	jmp    7d9c <no_error_code>

00007df6 <coprocessor_segment_overrun>:
    7df6:	68 d0 7a 00 00       	push   $0x7ad0
    7dfb:	eb 9f                	jmp    7d9c <no_error_code>

00007dfd <reserved>:
    7dfd:	68 60 7b 00 00       	push   $0x7b60
    7e02:	eb 98                	jmp    7d9c <no_error_code>

00007e04 <irq13>:
    7e04:	50                   	push   %eax
    7e05:	30 c0                	xor    %al,%al
    7e07:	e6 f0                	out    %al,$0xf0
    7e09:	b0 20                	mov    $0x20,%al
    7e0b:	e6 20                	out    %al,$0x20
    7e0d:	eb 00                	jmp    7e0f <irq13+0xb>
    7e0f:	eb 00                	jmp    7e11 <irq13+0xd>
    7e11:	e6 a0                	out    %al,$0xa0
    7e13:	58                   	pop    %eax
    7e14:	e9 cd f8 ff ff       	jmp    76e6 <coprocessor_error>

00007e19 <double_fault>:
    7e19:	68 70 79 00 00       	push   $0x7970

00007e1e <error_code>:
    7e1e:	87 44 24 04          	xchg   %eax,0x4(%esp)
    7e22:	87 1c 24             	xchg   %ebx,(%esp)
    7e25:	51                   	push   %ecx
    7e26:	52                   	push   %edx
    7e27:	57                   	push   %edi
    7e28:	56                   	push   %esi
    7e29:	55                   	push   %ebp
    7e2a:	1e                   	push   %ds
    7e2b:	06                   	push   %es
    7e2c:	0f a0                	push   %fs
    7e2e:	50                   	push   %eax
    7e2f:	8d 44 24 2c          	lea    0x2c(%esp),%eax
    7e33:	50                   	push   %eax
    7e34:	b8 10 00 00 00       	mov    $0x10,%eax
    7e39:	8e d8                	mov    %eax,%ds
    7e3b:	8e c0                	mov    %eax,%es
    7e3d:	8e e0                	mov    %eax,%fs
    7e3f:	ff d3                	call   *%ebx
    7e41:	83 c4 08             	add    $0x8,%esp
    7e44:	0f a1                	pop    %fs
    7e46:	07                   	pop    %es
    7e47:	1f                   	pop    %ds
    7e48:	5d                   	pop    %ebp
    7e49:	5e                   	pop    %esi
    7e4a:	5f                   	pop    %edi
    7e4b:	5a                   	pop    %edx
    7e4c:	59                   	pop    %ecx
    7e4d:	5b                   	pop    %ebx
    7e4e:	58                   	pop    %eax
    7e4f:	cf                   	iret   

00007e50 <invalid_TSS>:
    7e50:	68 e9 7a 00 00       	push   $0x7ae9
    7e55:	eb c7                	jmp    7e1e <error_code>

00007e57 <segment_not_present>:
    7e57:	68 02 7b 00 00       	push   $0x7b02
    7e5c:	eb c0                	jmp    7e1e <error_code>

00007e5e <stack_segment>:
    7e5e:	68 1b 7b 00 00       	push   $0x7b1b
    7e63:	eb b9                	jmp    7e1e <error_code>

00007e65 <general_protection>:
    7e65:	68 89 79 00 00       	push   $0x7989
    7e6a:	eb b2                	jmp    7e1e <error_code>

00007e6c <verify_area>:
extern void write_verify(unsigned long address);

long last_pid=0;

void verify_area(void * addr,int size)
{
    7e6c:	56                   	push   %esi
    7e6d:	53                   	push   %ebx
    7e6e:	83 ec 04             	sub    $0x4,%esp
	unsigned long start;

	start = (unsigned long) addr;
    7e71:	8b 5c 24 10          	mov    0x10(%esp),%ebx
	size += start & 0xfff;
    7e75:	89 d8                	mov    %ebx,%eax
    7e77:	25 ff 0f 00 00       	and    $0xfff,%eax
    7e7c:	8b 74 24 14          	mov    0x14(%esp),%esi
    7e80:	01 c6                	add    %eax,%esi
	start &= 0xfffff000;
    7e82:	81 e3 00 f0 ff ff    	and    $0xfffff000,%ebx
    7e88:	a1 20 bc 01 00       	mov    0x1bc20,%eax
    7e8d:	05 e0 02 00 00       	add    $0x2e0,%eax
         __asm__("movb %3,%%dh\n\t"
    7e92:	8a 70 07             	mov    0x7(%eax),%dh
    7e95:	8a 50 04             	mov    0x4(%eax),%dl
    7e98:	c1 e2 10             	shl    $0x10,%edx
    7e9b:	66 8b 50 02          	mov    0x2(%eax),%dx
{
    7e9f:	01 d3                	add    %edx,%ebx
	start += get_base(current->ldt[2]);
	while (size>0) {
		size -= 4096;
		write_verify(start);
		start += 4096;
    7ea1:	85 f6                	test   %esi,%esi
    7ea3:	7e 1c                	jle    7ec1 <verify_area+0x55>
		size -= 4096;
    7ea5:	81 ee 00 10 00 00    	sub    $0x1000,%esi
		write_verify(start);
    7eab:	83 ec 0c             	sub    $0xc,%esp
    7eae:	53                   	push   %ebx
    7eaf:	e8 64 20 00 00       	call   9f18 <write_verify>
		start += 4096;
    7eb4:	81 c3 00 10 00 00    	add    $0x1000,%ebx
    7eba:	83 c4 10             	add    $0x10,%esp
    7ebd:	85 f6                	test   %esi,%esi
    7ebf:	7f e4                	jg     7ea5 <verify_area+0x39>
	}
}
    7ec1:	83 c4 04             	add    $0x4,%esp
    7ec4:	5b                   	pop    %ebx
    7ec5:	5e                   	pop    %esi
    7ec6:	c3                   	ret    

00007ec7 <copy_mem>:

int copy_mem(int nr,struct task_struct * p)
{
    7ec7:	55                   	push   %ebp
    7ec8:	57                   	push   %edi
    7ec9:	56                   	push   %esi
    7eca:	53                   	push   %ebx
    7ecb:	83 ec 0c             	sub    $0xc,%esp
    7ece:	8b 5c 24 24          	mov    0x24(%esp),%ebx
	unsigned long old_data_base,new_data_base,data_limit;
	unsigned long old_code_base,new_code_base,code_limit;

	code_limit=get_limit(0x0f);
    7ed2:	b8 0f 00 00 00       	mov    $0xf,%eax
    7ed7:	0f 03 f0             	lsl    %ax,%esi
    7eda:	46                   	inc    %esi
	data_limit=get_limit(0x17);
    7edb:	b0 17                	mov    $0x17,%al
    7edd:	0f 03 f8             	lsl    %ax,%edi
    7ee0:	47                   	inc    %edi
    7ee1:	a1 20 bc 01 00       	mov    0x1bc20,%eax
         __asm__("movb %3,%%dh\n\t"
    7ee6:	8a b0 df 02 00 00    	mov    0x2df(%eax),%dh
    7eec:	8a 90 dc 02 00 00    	mov    0x2dc(%eax),%dl
    7ef2:	c1 e2 10             	shl    $0x10,%edx
    7ef5:	66 8b 90 da 02 00 00 	mov    0x2da(%eax),%dx
    7efc:	89 d1                	mov    %edx,%ecx
{
    7efe:	8a b0 e7 02 00 00    	mov    0x2e7(%eax),%dh
    7f04:	8a 90 e4 02 00 00    	mov    0x2e4(%eax),%dl
    7f0a:	c1 e2 10             	shl    $0x10,%edx
    7f0d:	66 8b 90 e2 02 00 00 	mov    0x2e2(%eax),%dx
    7f14:	89 d5                	mov    %edx,%ebp
	old_code_base = get_base(current->ldt[1]);
	old_data_base = get_base(current->ldt[2]);
	if (old_data_base != old_code_base)
    7f16:	39 ca                	cmp    %ecx,%edx
    7f18:	74 10                	je     7f2a <copy_mem+0x63>
		panic("We don't support separate I&D");
    7f1a:	83 ec 0c             	sub    $0xc,%esp
    7f1d:	68 52 89 01 00       	push   $0x18952
    7f22:	e8 f2 03 00 00       	call   8319 <panic>
    7f27:	83 c4 10             	add    $0x10,%esp
	if (data_limit < code_limit)
    7f2a:	39 f7                	cmp    %esi,%edi
    7f2c:	73 10                	jae    7f3e <copy_mem+0x77>
		panic("Bad data_limit");
    7f2e:	83 ec 0c             	sub    $0xc,%esp
    7f31:	68 70 89 01 00       	push   $0x18970
    7f36:	e8 de 03 00 00       	call   8319 <panic>
    7f3b:	83 c4 10             	add    $0x10,%esp
	new_data_base = new_code_base = nr * 0x4000000;
    7f3e:	8b 44 24 20          	mov    0x20(%esp),%eax
    7f42:	89 c6                	mov    %eax,%esi
    7f44:	c1 e6 1a             	shl    $0x1a,%esi
	p->start_code = new_code_base;
    7f47:	89 b3 18 02 00 00    	mov    %esi,0x218(%ebx)
	set_base(p->ldt[1],new_code_base);
    7f4d:	89 f2                	mov    %esi,%edx
    7f4f:	52                   	push   %edx
    7f50:	66 89 93 da 02 00 00 	mov    %dx,0x2da(%ebx)
    7f57:	c1 ca 10             	ror    $0x10,%edx
    7f5a:	88 93 dc 02 00 00    	mov    %dl,0x2dc(%ebx)
    7f60:	88 b3 df 02 00 00    	mov    %dh,0x2df(%ebx)
    7f66:	5a                   	pop    %edx
	set_base(p->ldt[2],new_data_base);
    7f67:	52                   	push   %edx
    7f68:	66 89 93 e2 02 00 00 	mov    %dx,0x2e2(%ebx)
    7f6f:	c1 ca 10             	ror    $0x10,%edx
    7f72:	88 93 e4 02 00 00    	mov    %dl,0x2e4(%ebx)
    7f78:	88 b3 e7 02 00 00    	mov    %dh,0x2e7(%ebx)
    7f7e:	5a                   	pop    %edx
	if (copy_page_tables(old_data_base,new_data_base,data_limit)) {
    7f7f:	83 ec 04             	sub    $0x4,%esp
    7f82:	57                   	push   %edi
    7f83:	56                   	push   %esi
    7f84:	55                   	push   %ebp
    7f85:	e8 dc 1b 00 00       	call   9b66 <copy_page_tables>
    7f8a:	83 c4 10             	add    $0x10,%esp
		printk("free_page_tables: from copy_mem\n");
		free_page_tables(new_data_base,data_limit);
		return -ENOMEM;
	}
	return 0;
    7f8d:	ba 00 00 00 00       	mov    $0x0,%edx
	if (copy_page_tables(old_data_base,new_data_base,data_limit)) {
    7f92:	85 c0                	test   %eax,%eax
    7f94:	74 1f                	je     7fb5 <copy_mem+0xee>
		printk("free_page_tables: from copy_mem\n");
    7f96:	83 ec 0c             	sub    $0xc,%esp
    7f99:	68 bc 8a 01 00       	push   $0x18abc
    7f9e:	e8 b0 03 00 00       	call   8353 <printk>
		free_page_tables(new_data_base,data_limit);
    7fa3:	83 c4 08             	add    $0x8,%esp
    7fa6:	57                   	push   %edi
    7fa7:	56                   	push   %esi
    7fa8:	e8 54 1a 00 00       	call   9a01 <free_page_tables>
		return -ENOMEM;
    7fad:	ba f4 ff ff ff       	mov    $0xfffffff4,%edx
    7fb2:	83 c4 10             	add    $0x10,%esp
}
    7fb5:	89 d0                	mov    %edx,%eax
    7fb7:	83 c4 0c             	add    $0xc,%esp
    7fba:	5b                   	pop    %ebx
    7fbb:	5e                   	pop    %esi
    7fbc:	5f                   	pop    %edi
    7fbd:	5d                   	pop    %ebp
    7fbe:	c3                   	ret    

00007fbf <copy_process>:
 */
int copy_process(int nr,long ebp,long edi,long esi,long gs,long none,
		long ebx,long ecx,long edx,
		long fs,long es,long ds,
		long eip,long cs,long eflags,long esp,long ss)
{
    7fbf:	56                   	push   %esi
    7fc0:	53                   	push   %ebx
    7fc1:	83 ec 04             	sub    $0x4,%esp
    7fc4:	8b 74 24 10          	mov    0x10(%esp),%esi
	struct task_struct *p;
	int i;
	struct file *f;

	p = (struct task_struct *) get_free_page();
    7fc8:	e8 a3 19 00 00       	call   9970 <get_free_page>
    7fcd:	89 c3                	mov    %eax,%ebx
	if (!p)
		return -EAGAIN;
    7fcf:	b8 f5 ff ff ff       	mov    $0xfffffff5,%eax
	if (!p)
    7fd4:	85 db                	test   %ebx,%ebx
    7fd6:	0f 84 d8 02 00 00    	je     82b4 <copy_process+0x2f5>
	task[nr] = p;
    7fdc:	89 1c b5 40 bc 01 00 	mov    %ebx,0x1bc40(,%esi,4)
	*p = *current;	/* NOTE! this doesn't copy the supervisor stack */
    7fe3:	83 ec 04             	sub    $0x4,%esp
    7fe6:	68 bc 03 00 00       	push   $0x3bc
    7feb:	ff 35 20 bc 01 00    	pushl  0x1bc20
    7ff1:	53                   	push   %ebx
    7ff2:	e8 d3 05 01 00       	call   185ca <memcpy>
	p->state = TASK_UNINTERRUPTIBLE;
    7ff7:	c7 03 02 00 00 00    	movl   $0x2,(%ebx)
	p->pid = last_pid;
    7ffd:	a1 20 ed 01 00       	mov    0x1ed20,%eax
    8002:	89 83 2c 02 00 00    	mov    %eax,0x22c(%ebx)
	p->father = current->pid;
    8008:	a1 20 bc 01 00       	mov    0x1bc20,%eax
    800d:	8b 80 2c 02 00 00    	mov    0x22c(%eax),%eax
    8013:	89 83 30 02 00 00    	mov    %eax,0x230(%ebx)
	p->counter = p->priority;
    8019:	8b 43 08             	mov    0x8(%ebx),%eax
    801c:	89 43 04             	mov    %eax,0x4(%ebx)
	p->signal = 0;
    801f:	c7 43 0c 00 00 00 00 	movl   $0x0,0xc(%ebx)
	p->alarm = 0;
    8026:	c7 83 4c 02 00 00 00 	movl   $0x0,0x24c(%ebx)
    802d:	00 00 00 
	p->leader = 0;		/* process leadership doesn't inherit */
    8030:	c7 83 3c 02 00 00 00 	movl   $0x0,0x23c(%ebx)
    8037:	00 00 00 
	p->utime = p->stime = 0;
    803a:	c7 83 54 02 00 00 00 	movl   $0x0,0x254(%ebx)
    8041:	00 00 00 
    8044:	c7 83 50 02 00 00 00 	movl   $0x0,0x250(%ebx)
    804b:	00 00 00 
	p->cutime = p->cstime = 0;
    804e:	c7 83 5c 02 00 00 00 	movl   $0x0,0x25c(%ebx)
    8055:	00 00 00 
    8058:	c7 83 58 02 00 00 00 	movl   $0x0,0x258(%ebx)
    805f:	00 00 00 
	p->start_time = jiffies;
    8062:	a1 c0 e9 01 00       	mov    0x1e9c0,%eax
    8067:	89 83 60 02 00 00    	mov    %eax,0x260(%ebx)
	p->tss.back_link = 0;
    806d:	c7 83 e8 02 00 00 00 	movl   $0x0,0x2e8(%ebx)
    8074:	00 00 00 
	p->tss.esp0 = PAGE_SIZE + (long) p;
    8077:	8d 83 00 10 00 00    	lea    0x1000(%ebx),%eax
    807d:	89 83 ec 02 00 00    	mov    %eax,0x2ec(%ebx)
	p->tss.ss0 = 0x10;
    8083:	c7 83 f0 02 00 00 10 	movl   $0x10,0x2f0(%ebx)
    808a:	00 00 00 
	p->tss.eip = eip;
    808d:	8b 44 24 50          	mov    0x50(%esp),%eax
    8091:	89 83 08 03 00 00    	mov    %eax,0x308(%ebx)
	p->tss.eflags = eflags;
    8097:	8b 44 24 58          	mov    0x58(%esp),%eax
    809b:	89 83 0c 03 00 00    	mov    %eax,0x30c(%ebx)
	p->tss.eax = 0;
    80a1:	c7 83 10 03 00 00 00 	movl   $0x0,0x310(%ebx)
    80a8:	00 00 00 
	p->tss.ecx = ecx;
    80ab:	8b 44 24 3c          	mov    0x3c(%esp),%eax
    80af:	89 83 14 03 00 00    	mov    %eax,0x314(%ebx)
	p->tss.edx = edx;
    80b5:	8b 44 24 40          	mov    0x40(%esp),%eax
    80b9:	89 83 18 03 00 00    	mov    %eax,0x318(%ebx)
	p->tss.ebx = ebx;
    80bf:	8b 44 24 38          	mov    0x38(%esp),%eax
    80c3:	89 83 1c 03 00 00    	mov    %eax,0x31c(%ebx)
	p->tss.esp = esp;
    80c9:	8b 44 24 5c          	mov    0x5c(%esp),%eax
    80cd:	89 83 20 03 00 00    	mov    %eax,0x320(%ebx)
	p->tss.ebp = ebp;
    80d3:	8b 44 24 24          	mov    0x24(%esp),%eax
    80d7:	89 83 24 03 00 00    	mov    %eax,0x324(%ebx)
	p->tss.esi = esi;
    80dd:	8b 44 24 2c          	mov    0x2c(%esp),%eax
    80e1:	89 83 28 03 00 00    	mov    %eax,0x328(%ebx)
	p->tss.edi = edi;
    80e7:	8b 44 24 28          	mov    0x28(%esp),%eax
    80eb:	89 83 2c 03 00 00    	mov    %eax,0x32c(%ebx)
	p->tss.es = es & 0xffff;
    80f1:	0f b7 44 24 48       	movzwl 0x48(%esp),%eax
    80f6:	89 83 30 03 00 00    	mov    %eax,0x330(%ebx)
	p->tss.cs = cs & 0xffff;
    80fc:	0f b7 44 24 54       	movzwl 0x54(%esp),%eax
    8101:	89 83 34 03 00 00    	mov    %eax,0x334(%ebx)
	p->tss.ss = ss & 0xffff;
    8107:	0f b7 44 24 60       	movzwl 0x60(%esp),%eax
    810c:	89 83 38 03 00 00    	mov    %eax,0x338(%ebx)
	p->tss.ds = ds & 0xffff;
    8112:	0f b7 44 24 4c       	movzwl 0x4c(%esp),%eax
    8117:	89 83 3c 03 00 00    	mov    %eax,0x33c(%ebx)
	p->tss.fs = fs & 0xffff;
    811d:	0f b7 44 24 44       	movzwl 0x44(%esp),%eax
    8122:	89 83 40 03 00 00    	mov    %eax,0x340(%ebx)
	p->tss.gs = gs & 0xffff;
    8128:	0f b7 44 24 30       	movzwl 0x30(%esp),%eax
    812d:	89 83 44 03 00 00    	mov    %eax,0x344(%ebx)
	p->tss.ldt = _LDT(nr);
    8133:	89 f0                	mov    %esi,%eax
    8135:	c1 e0 04             	shl    $0x4,%eax
    8138:	83 c0 28             	add    $0x28,%eax
    813b:	89 83 48 03 00 00    	mov    %eax,0x348(%ebx)
	p->tss.trace_bitmap = 0x80000000;
    8141:	c7 83 4c 03 00 00 00 	movl   $0x80000000,0x34c(%ebx)
    8148:	00 00 80 
	if (last_task_used_math == current)
    814b:	83 c4 10             	add    $0x10,%esp
    814e:	a1 c8 e9 01 00       	mov    0x1e9c8,%eax
    8153:	3b 05 20 bc 01 00    	cmp    0x1bc20,%eax
    8159:	75 08                	jne    8163 <copy_process+0x1a4>
		__asm__("clts ; fnsave %0"::"m" (p->tss.i387));
    815b:	0f 06                	clts   
    815d:	dd b3 50 03 00 00    	fnsave 0x350(%ebx)
	if (copy_mem(nr,p)) {
    8163:	83 ec 08             	sub    $0x8,%esp
    8166:	53                   	push   %ebx
    8167:	56                   	push   %esi
    8168:	e8 5a fd ff ff       	call   7ec7 <copy_mem>
    816d:	83 c4 10             	add    $0x10,%esp
		task[nr] = NULL;
		free_page((long) p);
		return -EAGAIN;
	}
	for (i=0; i<NR_OPEN;i++)
    8170:	ba 00 00 00 00       	mov    $0x0,%edx
	if (copy_mem(nr,p)) {
    8175:	85 c0                	test   %eax,%eax
    8177:	74 21                	je     819a <copy_process+0x1db>
		task[nr] = NULL;
    8179:	c7 04 b5 40 bc 01 00 	movl   $0x0,0x1bc40(,%esi,4)
    8180:	00 00 00 00 
		free_page((long) p);
    8184:	83 ec 0c             	sub    $0xc,%esp
    8187:	53                   	push   %ebx
    8188:	e8 18 18 00 00       	call   99a5 <free_page>
		return -EAGAIN;
    818d:	b8 f5 ff ff ff       	mov    $0xfffffff5,%eax
    8192:	83 c4 10             	add    $0x10,%esp
    8195:	e9 1a 01 00 00       	jmp    82b4 <copy_process+0x2f5>
		if ((f=p->filp[i]))
    819a:	8b 84 93 80 02 00 00 	mov    0x280(%ebx,%edx,4),%eax
    81a1:	85 c0                	test   %eax,%eax
    81a3:	74 04                	je     81a9 <copy_process+0x1ea>
			f->f_count++;
    81a5:	66 ff 40 04          	incw   0x4(%eax)
	for (i=0; i<NR_OPEN;i++)
    81a9:	42                   	inc    %edx
    81aa:	83 fa 13             	cmp    $0x13,%edx
    81ad:	7e eb                	jle    819a <copy_process+0x1db>
	if (current->pwd)
    81af:	a1 20 bc 01 00       	mov    0x1bc20,%eax
    81b4:	83 b8 70 02 00 00 00 	cmpl   $0x0,0x270(%eax)
    81bb:	74 0a                	je     81c7 <copy_process+0x208>
		current->pwd->i_count++;
    81bd:	8b 80 70 02 00 00    	mov    0x270(%eax),%eax
    81c3:	66 ff 40 30          	incw   0x30(%eax)
	if (current->root)
    81c7:	a1 20 bc 01 00       	mov    0x1bc20,%eax
    81cc:	83 b8 74 02 00 00 00 	cmpl   $0x0,0x274(%eax)
    81d3:	74 0a                	je     81df <copy_process+0x220>
		current->root->i_count++;
    81d5:	8b 80 74 02 00 00    	mov    0x274(%eax),%eax
    81db:	66 ff 40 30          	incw   0x30(%eax)
	if (current->executable)
    81df:	a1 20 bc 01 00       	mov    0x1bc20,%eax
    81e4:	83 b8 78 02 00 00 00 	cmpl   $0x0,0x278(%eax)
    81eb:	74 0a                	je     81f7 <copy_process+0x238>
		current->executable->i_count++;
    81ed:	8b 80 78 02 00 00    	mov    0x278(%eax),%eax
    81f3:	66 ff 40 30          	incw   0x30(%eax)
	set_tss_desc(gdt+(nr<<1)+FIRST_TSS_ENTRY,&(p->tss));
    81f7:	8d 93 e8 02 00 00    	lea    0x2e8(%ebx),%edx
    81fd:	89 f1                	mov    %esi,%ecx
    81ff:	c1 e1 04             	shl    $0x4,%ecx
    8202:	89 d0                	mov    %edx,%eax
    8204:	66 c7 81 d8 5c 00 00 	movw   $0x68,0x5cd8(%ecx)
    820b:	68 00 
    820d:	66 89 81 da 5c 00 00 	mov    %ax,0x5cda(%ecx)
    8214:	c1 c8 10             	ror    $0x10,%eax
    8217:	88 81 dc 5c 00 00    	mov    %al,0x5cdc(%ecx)
    821d:	c6 81 dd 5c 00 00 89 	movb   $0x89,0x5cdd(%ecx)
    8224:	c6 81 de 5c 00 00 00 	movb   $0x0,0x5cde(%ecx)
    822b:	88 a1 df 5c 00 00    	mov    %ah,0x5cdf(%ecx)
    8231:	c1 c8 10             	ror    $0x10,%eax
	set_ldt_desc(gdt+(nr<<1)+FIRST_LDT_ENTRY,&(p->ldt));
    8234:	8d 93 d0 02 00 00    	lea    0x2d0(%ebx),%edx
    823a:	89 d0                	mov    %edx,%eax
    823c:	66 c7 81 e0 5c 00 00 	movw   $0x68,0x5ce0(%ecx)
    8243:	68 00 
    8245:	66 89 81 e2 5c 00 00 	mov    %ax,0x5ce2(%ecx)
    824c:	c1 c8 10             	ror    $0x10,%eax
    824f:	88 81 e4 5c 00 00    	mov    %al,0x5ce4(%ecx)
    8255:	c6 81 e5 5c 00 00 82 	movb   $0x82,0x5ce5(%ecx)
    825c:	c6 81 e6 5c 00 00 00 	movb   $0x0,0x5ce6(%ecx)
    8263:	88 a1 e7 5c 00 00    	mov    %ah,0x5ce7(%ecx)
    8269:	c1 c8 10             	ror    $0x10,%eax
	p->state = TASK_RUNNING;	/* do this last, just in case */
    826c:	c7 03 00 00 00 00    	movl   $0x0,(%ebx)


	fprintk(3, "%ld\t%c\t%ld\n", p->pid, 'N', jiffies);
    8272:	83 ec 0c             	sub    $0xc,%esp
    8275:	a1 c0 e9 01 00       	mov    0x1e9c0,%eax
    827a:	50                   	push   %eax
    827b:	6a 4e                	push   $0x4e
    827d:	ff b3 2c 02 00 00    	pushl  0x22c(%ebx)
    8283:	68 cb 87 01 00       	push   $0x187cb
    8288:	6a 03                	push   $0x3
    828a:	e8 ff 00 00 00       	call   838e <fprintk>
	fprintk(3, "%ld\t%c\t%ld\n", p->pid, 'J', jiffies);
    828f:	83 c4 14             	add    $0x14,%esp
    8292:	a1 c0 e9 01 00       	mov    0x1e9c0,%eax
    8297:	50                   	push   %eax
    8298:	6a 4a                	push   $0x4a
    829a:	ff b3 2c 02 00 00    	pushl  0x22c(%ebx)
    82a0:	68 cb 87 01 00       	push   $0x187cb
    82a5:	6a 03                	push   $0x3
    82a7:	e8 e2 00 00 00       	call   838e <fprintk>

	return last_pid;
    82ac:	a1 20 ed 01 00       	mov    0x1ed20,%eax
    82b1:	83 c4 20             	add    $0x20,%esp
}
    82b4:	83 c4 04             	add    $0x4,%esp
    82b7:	5b                   	pop    %ebx
    82b8:	5e                   	pop    %esi
    82b9:	c3                   	ret    

000082ba <find_empty_process>:
int find_empty_process(void)
{
	int i;

	repeat:
		if ((++last_pid)<0) last_pid=1;
    82ba:	ff 05 20 ed 01 00    	incl   0x1ed20
    82c0:	83 3d 20 ed 01 00 00 	cmpl   $0x0,0x1ed20
    82c7:	79 0a                	jns    82d3 <find_empty_process+0x19>
    82c9:	c7 05 20 ed 01 00 01 	movl   $0x1,0x1ed20
    82d0:	00 00 00 
		for(i=0 ; i<NR_TASKS ; i++)
    82d3:	ba 00 00 00 00       	mov    $0x0,%edx
    82d8:	b9 40 bc 01 00       	mov    $0x1bc40,%ecx
			if (task[i] && task[i]->pid == last_pid) goto repeat;
    82dd:	83 3c 91 00          	cmpl   $0x0,(%ecx,%edx,4)
    82e1:	74 11                	je     82f4 <find_empty_process+0x3a>
    82e3:	8b 04 91             	mov    (%ecx,%edx,4),%eax
    82e6:	8b 80 2c 02 00 00    	mov    0x22c(%eax),%eax
    82ec:	3b 05 20 ed 01 00    	cmp    0x1ed20,%eax
    82f2:	74 c6                	je     82ba <find_empty_process>
		for(i=0 ; i<NR_TASKS ; i++)
    82f4:	42                   	inc    %edx
    82f5:	83 fa 3f             	cmp    $0x3f,%edx
    82f8:	7e e3                	jle    82dd <find_empty_process+0x23>
	for(i=1 ; i<NR_TASKS ; i++)
    82fa:	ba 01 00 00 00       	mov    $0x1,%edx
    82ff:	b8 40 bc 01 00       	mov    $0x1bc40,%eax
		if (!task[i])
    8304:	83 3c 90 00          	cmpl   $0x0,(%eax,%edx,4)
    8308:	75 03                	jne    830d <find_empty_process+0x53>
			return i;
    830a:	89 d0                	mov    %edx,%eax
    830c:	c3                   	ret    
	for(i=1 ; i<NR_TASKS ; i++)
    830d:	42                   	inc    %edx
    830e:	83 fa 3f             	cmp    $0x3f,%edx
    8311:	7e f1                	jle    8304 <find_empty_process+0x4a>
	return -EAGAIN;
    8313:	b8 f5 ff ff ff       	mov    $0xfffffff5,%eax
}
    8318:	c3                   	ret    

00008319 <panic>:
#include <linux/sched.h>

void sys_sync(void);	/* it's really int */

volatile void panic(const char * s)
{
    8319:	83 ec 14             	sub    $0x14,%esp
	printk("Kernel panic: %s\n\r",s);
    831c:	ff 74 24 18          	pushl  0x18(%esp)
    8320:	68 7f 89 01 00       	push   $0x1897f
    8325:	e8 29 00 00 00       	call   8353 <printk>
	if (current == task[0])
    832a:	83 c4 10             	add    $0x10,%esp
    832d:	a1 40 bc 01 00       	mov    0x1bc40,%eax
    8332:	3b 05 20 bc 01 00    	cmp    0x1bc20,%eax
    8338:	75 12                	jne    834c <panic+0x33>
		printk("In swapper task - not syncing\n\r");
    833a:	83 ec 0c             	sub    $0xc,%esp
    833d:	68 e0 8a 01 00       	push   $0x18ae0
    8342:	e8 0c 00 00 00       	call   8353 <printk>
    8347:	83 c4 10             	add    $0x10,%esp
    834a:	eb 05                	jmp    8351 <panic+0x38>
	else
		sys_sync();
    834c:	e8 74 3c 00 00       	call   bfc5 <sys_sync>
	for(;;);
    8351:	eb fe                	jmp    8351 <panic+0x38>

00008353 <printk>:
static char buf[1024];

extern int vsprintf(char * buf, const char * fmt, va_list args);

int printk(const char *fmt, ...)
{
    8353:	53                   	push   %ebx
    8354:	83 ec 08             	sub    $0x8,%esp
	va_list args;
	int i;

	va_start(args, fmt);
    8357:	8d 44 24 14          	lea    0x14(%esp),%eax
	i=vsprintf(buf,fmt,args);
    835b:	83 ec 04             	sub    $0x4,%esp
    835e:	50                   	push   %eax
    835f:	ff 74 24 18          	pushl  0x18(%esp)
    8363:	68 40 f1 01 00       	push   $0x1f140
    8368:	e8 d1 02 00 00       	call   863e <vsprintf>
    836d:	89 c3                	mov    %eax,%ebx
	va_end(args);
	__asm__("push %%fs\n\t"
    836f:	0f a0                	push   %fs
    8371:	1e                   	push   %ds
    8372:	0f a1                	pop    %fs
    8374:	53                   	push   %ebx
    8375:	68 40 f1 01 00       	push   $0x1f140
    837a:	6a 00                	push   $0x0
    837c:	e8 db d5 00 00       	call   1595c <tty_write>
    8381:	83 c4 08             	add    $0x8,%esp
    8384:	5b                   	pop    %ebx
    8385:	0f a1                	pop    %fs
		"addl $8,%%esp\n\t"
		"popl %0\n\t"
		"pop %%fs"
		::"r" (i):"ax","cx","dx");
	return i;
}
    8387:	89 d8                	mov    %ebx,%eax
    8389:	83 c4 18             	add    $0x18,%esp
    838c:	5b                   	pop    %ebx
    838d:	c3                   	ret    

0000838e <fprintk>:


int fprintk(int fd, const char *fmt, ...)
{
    838e:	57                   	push   %edi
    838f:	56                   	push   %esi
    8390:	53                   	push   %ebx
    8391:	8b 5c 24 10          	mov    0x10(%esp),%ebx
    va_list args;
    int count;
    struct file * file;
    struct m_inode * inode;

    va_start(args, fmt);
    8395:	8d 44 24 18          	lea    0x18(%esp),%eax
    count=vsprintf(logbuf, fmt, args);
    8399:	83 ec 04             	sub    $0x4,%esp
    839c:	50                   	push   %eax
    839d:	ff 74 24 1c          	pushl  0x1c(%esp)
    83a1:	68 40 ed 01 00       	push   $0x1ed40
    83a6:	e8 93 02 00 00       	call   863e <vsprintf>
    83ab:	89 c7                	mov    %eax,%edi
    va_end(args);
/* 如果输出到stdout或stderr，直接调用sys_write即可 */
    if (fd < 3)
    83ad:	83 c4 10             	add    $0x10,%esp
    83b0:	83 fb 02             	cmp    $0x2,%ebx
    83b3:	7f 19                	jg     83ce <fprintk+0x40>
    {
        __asm__("push %%fs\n\t"
    83b5:	0f a0                	push   %fs
    83b7:	1e                   	push   %ds
    83b8:	0f a1                	pop    %fs
    83ba:	57                   	push   %edi
    83bb:	68 40 ed 01 00       	push   $0x1ed40
    83c0:	53                   	push   %ebx
    83c1:	e8 d6 2d 00 00       	call   b19c <sys_write>
    83c6:	83 c4 08             	add    $0x8,%esp
    83c9:	5f                   	pop    %edi
    83ca:	0f a1                	pop    %fs
    83cc:	eb 30                	jmp    83fe <fprintk+0x70>
    }
    else
	/* 假定>=3的描述符都与文件关联。事实上，还存在很多其它情况，这里并没有考虑。*/
    {
    /* 从进程0的文件描述符表中得到文件句柄 */
        if (!(file=task[0]->filp[fd]))
    83ce:	a1 40 bc 01 00       	mov    0x1bc40,%eax
    83d3:	8b b4 98 80 02 00 00 	mov    0x280(%eax,%ebx,4),%esi
            return 0;
    83da:	b8 00 00 00 00       	mov    $0x0,%eax
        if (!(file=task[0]->filp[fd]))
    83df:	85 f6                	test   %esi,%esi
    83e1:	74 1d                	je     8400 <fprintk+0x72>
        inode=file->f_inode;
    83e3:	8b 5e 08             	mov    0x8(%esi),%ebx

        __asm__("push %%fs\n\t"
    83e6:	0f a0                	push   %fs
    83e8:	1e                   	push   %ds
    83e9:	0f a1                	pop    %fs
    83eb:	57                   	push   %edi
    83ec:	68 40 ed 01 00       	push   $0x1ed40
    83f1:	56                   	push   %esi
    83f2:	53                   	push   %ebx
    83f3:	e8 de 58 00 00       	call   dcd6 <file_write>
    83f8:	83 c4 0c             	add    $0xc,%esp
    83fb:	5f                   	pop    %edi
    83fc:	0f a1                	pop    %fs
            "addl $12,%%esp\n\t"
            "popl %0\n\t"
            "pop %%fs"
            ::"r" (count),"r" (file),"r" (inode):"ax","cx","dx");
    }
    return count;
    83fe:	89 f8                	mov    %edi,%eax
}
    8400:	5b                   	pop    %ebx
    8401:	5e                   	pop    %esi
    8402:	5f                   	pop    %edi
    8403:	c3                   	ret    

00008404 <number>:
__asm__("divl %4":"=a" (n),"=d" (__res):"0" (n),"1" (0),"r" (base)); \
__res; })

static char * number(char * str, int num, int base, int size, int precision
	,int type)
{
    8404:	55                   	push   %ebp
    8405:	57                   	push   %edi
    8406:	56                   	push   %esi
    8407:	53                   	push   %ebx
    8408:	83 ec 7c             	sub    $0x7c,%esp
    840b:	8b 9c 24 90 00 00 00 	mov    0x90(%esp),%ebx
    8412:	8b ac 24 94 00 00 00 	mov    0x94(%esp),%ebp
    8419:	8b bc 24 9c 00 00 00 	mov    0x9c(%esp),%edi
	char c,sign,tmp[36];
	const char *digits="0123456789ABCDEFGHIJKLMNOPQRSTUVWXYZ";
    8420:	c7 44 24 1c 00 8b 01 	movl   $0x18b00,0x1c(%esp)
    8427:	00 
	int i;

	if (type&SMALL) digits="0123456789abcdefghijklmnopqrstuvwxyz";
    8428:	f6 84 24 a4 00 00 00 	testb  $0x40,0xa4(%esp)
    842f:	40 
    8430:	74 08                	je     843a <number+0x36>
    8432:	c7 44 24 1c 28 8b 01 	movl   $0x18b28,0x1c(%esp)
    8439:	00 
	if (type&LEFT) type &= ~ZEROPAD;
    843a:	f6 84 24 a4 00 00 00 	testb  $0x10,0xa4(%esp)
    8441:	10 
    8442:	74 08                	je     844c <number+0x48>
    8444:	83 a4 24 a4 00 00 00 	andl   $0xfffffffe,0xa4(%esp)
    844b:	fe 
	if (base<2 || base>36)
    844c:	8b 84 24 98 00 00 00 	mov    0x98(%esp),%eax
    8453:	83 e8 02             	sub    $0x2,%eax
		return 0;
    8456:	ba 00 00 00 00       	mov    $0x0,%edx
	if (base<2 || base>36)
    845b:	83 f8 22             	cmp    $0x22,%eax
    845e:	0f 87 d0 01 00 00    	ja     8634 <number+0x230>
	c = (type & ZEROPAD) ? '0' : ' ' ;
    8464:	8b 84 24 a4 00 00 00 	mov    0xa4(%esp),%eax
    846b:	83 e0 01             	and    $0x1,%eax
    846e:	83 f8 01             	cmp    $0x1,%eax
    8471:	19 c0                	sbb    %eax,%eax
    8473:	83 e0 f0             	and    $0xfffffff0,%eax
    8476:	83 c0 30             	add    $0x30,%eax
    8479:	88 44 24 30          	mov    %al,0x30(%esp)
	if (type&SIGN && num<0) {
    847d:	f6 84 24 a4 00 00 00 	testb  $0x2,0xa4(%esp)
    8484:	02 
    8485:	74 0d                	je     8494 <number+0x90>
    8487:	85 ed                	test   %ebp,%ebp
    8489:	79 09                	jns    8494 <number+0x90>
		sign='-';
    848b:	c6 44 24 20 2d       	movb   $0x2d,0x20(%esp)
		num = -num;
    8490:	f7 dd                	neg    %ebp
    8492:	eb 27                	jmp    84bb <number+0xb7>
	} else
		sign=(type&PLUS) ? '+' : ((type&SPACE) ? ' ' : 0);
    8494:	c6 44 24 20 2b       	movb   $0x2b,0x20(%esp)
    8499:	f6 84 24 a4 00 00 00 	testb  $0x4,0xa4(%esp)
    84a0:	04 
    84a1:	75 18                	jne    84bb <number+0xb7>
    84a3:	8b 84 24 a4 00 00 00 	mov    0xa4(%esp),%eax
    84aa:	83 e0 08             	and    $0x8,%eax
    84ad:	83 f8 01             	cmp    $0x1,%eax
    84b0:	19 d2                	sbb    %edx,%edx
    84b2:	f7 d2                	not    %edx
    84b4:	83 e2 20             	and    $0x20,%edx
    84b7:	88 54 24 20          	mov    %dl,0x20(%esp)
	if (sign) size--;
    84bb:	80 7c 24 20 01       	cmpb   $0x1,0x20(%esp)
    84c0:	83 d7 ff             	adc    $0xffffffff,%edi
	if (type&SPECIAL) {
    84c3:	f6 84 24 a4 00 00 00 	testb  $0x20,0xa4(%esp)
    84ca:	20 
    84cb:	74 1a                	je     84e7 <number+0xe3>
		if (base==16) size -= 2;
    84cd:	83 bc 24 98 00 00 00 	cmpl   $0x10,0x98(%esp)
    84d4:	10 
    84d5:	75 05                	jne    84dc <number+0xd8>
    84d7:	83 ef 02             	sub    $0x2,%edi
    84da:	eb 0b                	jmp    84e7 <number+0xe3>
		else if (base==8) size--;
    84dc:	83 bc 24 98 00 00 00 	cmpl   $0x8,0x98(%esp)
    84e3:	08 
    84e4:	75 01                	jne    84e7 <number+0xe3>
    84e6:	4f                   	dec    %edi
	}
	i=0;
    84e7:	c7 44 24 18 00 00 00 	movl   $0x0,0x18(%esp)
    84ee:	00 
    84ef:	be 00 00 00 00       	mov    $0x0,%esi
	if (num==0)
    84f4:	85 ed                	test   %ebp,%ebp
    84f6:	75 0f                	jne    8507 <number+0x103>
		tmp[i++]='0';
    84f8:	c6 44 24 40 30       	movb   $0x30,0x40(%esp)
    84fd:	c7 44 24 18 01 00 00 	movl   $0x1,0x18(%esp)
    8504:	00 
    8505:	eb 31                	jmp    8538 <number+0x134>
	else while (num!=0)
		tmp[i++]=digits[do_div(num,base)];
    8507:	8d 4c 24 70          	lea    0x70(%esp),%ecx
    850b:	03 4c 24 18          	add    0x18(%esp),%ecx
    850f:	89 4c 24 0c          	mov    %ecx,0xc(%esp)
    8513:	89 e8                	mov    %ebp,%eax
    8515:	89 f2                	mov    %esi,%edx
    8517:	8b 8c 24 98 00 00 00 	mov    0x98(%esp),%ecx
    851e:	f7 f1                	div    %ecx
    8520:	89 c5                	mov    %eax,%ebp
    8522:	ff 44 24 18          	incl   0x18(%esp)
    8526:	8b 4c 24 1c          	mov    0x1c(%esp),%ecx
    852a:	8a 04 0a             	mov    (%edx,%ecx,1),%al
    852d:	8b 54 24 0c          	mov    0xc(%esp),%edx
    8531:	88 42 d0             	mov    %al,-0x30(%edx)
    8534:	85 ed                	test   %ebp,%ebp
    8536:	75 cf                	jne    8507 <number+0x103>
	if (i>precision) precision=i;
    8538:	8b 8c 24 a0 00 00 00 	mov    0xa0(%esp),%ecx
    853f:	39 4c 24 18          	cmp    %ecx,0x18(%esp)
    8543:	7e 0b                	jle    8550 <number+0x14c>
    8545:	8b 44 24 18          	mov    0x18(%esp),%eax
    8549:	89 84 24 a0 00 00 00 	mov    %eax,0xa0(%esp)
	size -= precision;
    8550:	2b bc 24 a0 00 00 00 	sub    0xa0(%esp),%edi
	if (!(type&(ZEROPAD+LEFT)))
    8557:	f6 84 24 a4 00 00 00 	testb  $0x11,0xa4(%esp)
    855e:	11 
    855f:	75 12                	jne    8573 <number+0x16f>
		while(size-->0)
			*str++ = ' ';
    8561:	89 f8                	mov    %edi,%eax
    8563:	4f                   	dec    %edi
    8564:	85 c0                	test   %eax,%eax
    8566:	7e 0b                	jle    8573 <number+0x16f>
    8568:	c6 03 20             	movb   $0x20,(%ebx)
    856b:	43                   	inc    %ebx
    856c:	89 f8                	mov    %edi,%eax
    856e:	4f                   	dec    %edi
    856f:	85 c0                	test   %eax,%eax
    8571:	7f f5                	jg     8568 <number+0x164>
	if (sign)
    8573:	80 7c 24 20 00       	cmpb   $0x0,0x20(%esp)
    8578:	74 07                	je     8581 <number+0x17d>
		*str++ = sign;
    857a:	8a 54 24 20          	mov    0x20(%esp),%dl
    857e:	88 13                	mov    %dl,(%ebx)
    8580:	43                   	inc    %ebx
	if (type&SPECIAL) {
    8581:	f6 84 24 a4 00 00 00 	testb  $0x20,0xa4(%esp)
    8588:	20 
    8589:	74 28                	je     85b3 <number+0x1af>
		if (base==8)
    858b:	83 bc 24 98 00 00 00 	cmpl   $0x8,0x98(%esp)
    8592:	08 
    8593:	75 06                	jne    859b <number+0x197>
			*str++ = '0';
    8595:	c6 03 30             	movb   $0x30,(%ebx)
    8598:	43                   	inc    %ebx
    8599:	eb 18                	jmp    85b3 <number+0x1af>
		else if (base==16) {
    859b:	83 bc 24 98 00 00 00 	cmpl   $0x10,0x98(%esp)
    85a2:	10 
    85a3:	75 0e                	jne    85b3 <number+0x1af>
			*str++ = '0';
    85a5:	c6 03 30             	movb   $0x30,(%ebx)
    85a8:	43                   	inc    %ebx
			*str++ = digits[33];
    85a9:	8b 4c 24 1c          	mov    0x1c(%esp),%ecx
    85ad:	8a 41 21             	mov    0x21(%ecx),%al
    85b0:	88 03                	mov    %al,(%ebx)
    85b2:	43                   	inc    %ebx
		}
	}
	if (!(type&LEFT))
    85b3:	f6 84 24 a4 00 00 00 	testb  $0x10,0xa4(%esp)
    85ba:	10 
    85bb:	75 15                	jne    85d2 <number+0x1ce>
		while(size-->0)
			*str++ = c;
    85bd:	89 f8                	mov    %edi,%eax
    85bf:	4f                   	dec    %edi
    85c0:	85 c0                	test   %eax,%eax
    85c2:	7e 0e                	jle    85d2 <number+0x1ce>
    85c4:	8a 44 24 30          	mov    0x30(%esp),%al
    85c8:	88 03                	mov    %al,(%ebx)
    85ca:	43                   	inc    %ebx
    85cb:	89 f8                	mov    %edi,%eax
    85cd:	4f                   	dec    %edi
    85ce:	85 c0                	test   %eax,%eax
    85d0:	7f f2                	jg     85c4 <number+0x1c0>
	while(i<precision--)
		*str++ = '0';
    85d2:	8b 84 24 a0 00 00 00 	mov    0xa0(%esp),%eax
    85d9:	ff 8c 24 a0 00 00 00 	decl   0xa0(%esp)
    85e0:	3b 44 24 18          	cmp    0x18(%esp),%eax
    85e4:	7e 18                	jle    85fe <number+0x1fa>
    85e6:	c6 03 30             	movb   $0x30,(%ebx)
    85e9:	43                   	inc    %ebx
    85ea:	8b 84 24 a0 00 00 00 	mov    0xa0(%esp),%eax
    85f1:	ff 8c 24 a0 00 00 00 	decl   0xa0(%esp)
    85f8:	3b 44 24 18          	cmp    0x18(%esp),%eax
    85fc:	7f e8                	jg     85e6 <number+0x1e2>
	while(i-->0)
		*str++ = tmp[i];
    85fe:	8b 44 24 18          	mov    0x18(%esp),%eax
    8602:	ff 4c 24 18          	decl   0x18(%esp)
    8606:	85 c0                	test   %eax,%eax
    8608:	7e 16                	jle    8620 <number+0x21c>
    860a:	8b 54 24 18          	mov    0x18(%esp),%edx
    860e:	8a 44 14 40          	mov    0x40(%esp,%edx,1),%al
    8612:	88 03                	mov    %al,(%ebx)
    8614:	43                   	inc    %ebx
    8615:	89 d0                	mov    %edx,%eax
    8617:	4a                   	dec    %edx
    8618:	89 54 24 18          	mov    %edx,0x18(%esp)
    861c:	85 c0                	test   %eax,%eax
    861e:	7f ea                	jg     860a <number+0x206>
	while(size-->0)
		*str++ = ' ';
    8620:	89 f8                	mov    %edi,%eax
    8622:	4f                   	dec    %edi
    8623:	85 c0                	test   %eax,%eax
    8625:	7e 0b                	jle    8632 <number+0x22e>
    8627:	c6 03 20             	movb   $0x20,(%ebx)
    862a:	43                   	inc    %ebx
    862b:	89 f8                	mov    %edi,%eax
    862d:	4f                   	dec    %edi
    862e:	85 c0                	test   %eax,%eax
    8630:	7f f5                	jg     8627 <number+0x223>
	return str;
    8632:	89 da                	mov    %ebx,%edx
}
    8634:	89 d0                	mov    %edx,%eax
    8636:	83 c4 7c             	add    $0x7c,%esp
    8639:	5b                   	pop    %ebx
    863a:	5e                   	pop    %esi
    863b:	5f                   	pop    %edi
    863c:	5d                   	pop    %ebp
    863d:	c3                   	ret    

0000863e <vsprintf>:

int vsprintf(char *buf, const char *fmt, va_list args)
{
    863e:	55                   	push   %ebp
    863f:	57                   	push   %edi
    8640:	56                   	push   %esi
    8641:	53                   	push   %ebx
    8642:	83 ec 0c             	sub    $0xc,%esp
	int field_width;	/* width of output field */
	int precision;		/* min. # of digits for integers; max
				   number of chars for from string */
	int qualifier;		/* 'h', 'l', or 'L' for integer fields */

	for (str=buf ; *fmt ; ++fmt) {
    8645:	8b 74 24 20          	mov    0x20(%esp),%esi
    8649:	8b 44 24 24          	mov    0x24(%esp),%eax
    864d:	80 38 00             	cmpb   $0x0,(%eax)
    8650:	0f 84 e9 02 00 00    	je     893f <vsprintf+0x301>
		if (*fmt != '%') {
    8656:	8b 44 24 24          	mov    0x24(%esp),%eax
    865a:	80 38 25             	cmpb   $0x25,(%eax)
    865d:	74 0a                	je     8669 <vsprintf+0x2b>
			*str++ = *fmt;
    865f:	8a 00                	mov    (%eax),%al
    8661:	88 06                	mov    %al,(%esi)
    8663:	46                   	inc    %esi
			continue;
    8664:	e9 c5 02 00 00       	jmp    892e <vsprintf+0x2f0>
		}
			
		/* process flags */
		flags = 0;
    8669:	c7 44 24 08 00 00 00 	movl   $0x0,0x8(%esp)
    8670:	00 
		repeat:
			++fmt;		/* this also skips first '%' */
    8671:	ff 44 24 24          	incl   0x24(%esp)
			switch (*fmt) {
    8675:	8b 44 24 24          	mov    0x24(%esp),%eax
    8679:	0f be 00             	movsbl (%eax),%eax
    867c:	83 e8 20             	sub    $0x20,%eax
    867f:	83 f8 10             	cmp    $0x10,%eax
    8682:	77 2a                	ja     86ae <vsprintf+0x70>
    8684:	ff 24 85 ec 86 01 00 	jmp    *0x186ec(,%eax,4)
				case '-': flags |= LEFT; goto repeat;
    868b:	83 4c 24 08 10       	orl    $0x10,0x8(%esp)
    8690:	eb df                	jmp    8671 <vsprintf+0x33>
				case '+': flags |= PLUS; goto repeat;
    8692:	83 4c 24 08 04       	orl    $0x4,0x8(%esp)
    8697:	eb d8                	jmp    8671 <vsprintf+0x33>
				case ' ': flags |= SPACE; goto repeat;
    8699:	83 4c 24 08 08       	orl    $0x8,0x8(%esp)
    869e:	eb d1                	jmp    8671 <vsprintf+0x33>
				case '#': flags |= SPECIAL; goto repeat;
    86a0:	83 4c 24 08 20       	orl    $0x20,0x8(%esp)
    86a5:	eb ca                	jmp    8671 <vsprintf+0x33>
				case '0': flags |= ZEROPAD; goto repeat;
    86a7:	83 4c 24 08 01       	orl    $0x1,0x8(%esp)
    86ac:	eb c3                	jmp    8671 <vsprintf+0x33>
				}
		
		/* get field width */
		field_width = -1;
    86ae:	bd ff ff ff ff       	mov    $0xffffffff,%ebp
		if (is_digit(*fmt))
    86b3:	8b 44 24 24          	mov    0x24(%esp),%eax
    86b7:	8a 00                	mov    (%eax),%al
    86b9:	83 e8 30             	sub    $0x30,%eax
    86bc:	3c 09                	cmp    $0x9,%al
    86be:	77 28                	ja     86e8 <vsprintf+0xaa>
{
    86c0:	8d 5c 24 24          	lea    0x24(%esp),%ebx
	int i=0;
    86c4:	b9 00 00 00 00       	mov    $0x0,%ecx
		i = i*10 + *((*s)++) - '0';
    86c9:	8d 0c 89             	lea    (%ecx,%ecx,4),%ecx
    86cc:	8b 13                	mov    (%ebx),%edx
    86ce:	0f be 02             	movsbl (%edx),%eax
    86d1:	8d 4c 48 d0          	lea    -0x30(%eax,%ecx,2),%ecx
    86d5:	8d 42 01             	lea    0x1(%edx),%eax
    86d8:	89 03                	mov    %eax,(%ebx)
    86da:	8a 42 01             	mov    0x1(%edx),%al
    86dd:	83 e8 30             	sub    $0x30,%eax
    86e0:	3c 09                	cmp    $0x9,%al
    86e2:	76 e5                	jbe    86c9 <vsprintf+0x8b>
{
    86e4:	89 cd                	mov    %ecx,%ebp
    86e6:	eb 20                	jmp    8708 <vsprintf+0xca>
			field_width = skip_atoi(&fmt);
		else if (*fmt == '*') {
    86e8:	8b 44 24 24          	mov    0x24(%esp),%eax
    86ec:	80 38 2a             	cmpb   $0x2a,(%eax)
    86ef:	75 17                	jne    8708 <vsprintf+0xca>
			/* it's the next argument */
			field_width = va_arg(args, int);
    86f1:	83 44 24 28 04       	addl   $0x4,0x28(%esp)
    86f6:	8b 44 24 28          	mov    0x28(%esp),%eax
    86fa:	8b 68 fc             	mov    -0x4(%eax),%ebp
			if (field_width < 0) {
    86fd:	85 ed                	test   %ebp,%ebp
    86ff:	79 07                	jns    8708 <vsprintf+0xca>
				field_width = -field_width;
    8701:	f7 dd                	neg    %ebp
				flags |= LEFT;
    8703:	83 4c 24 08 10       	orl    $0x10,0x8(%esp)
			}
		}

		/* get the precision */
		precision = -1;
    8708:	ba ff ff ff ff       	mov    $0xffffffff,%edx
		if (*fmt == '.') {
    870d:	8b 44 24 24          	mov    0x24(%esp),%eax
    8711:	80 38 2e             	cmpb   $0x2e,(%eax)
    8714:	75 54                	jne    876a <vsprintf+0x12c>
			++fmt;	
    8716:	40                   	inc    %eax
    8717:	89 44 24 24          	mov    %eax,0x24(%esp)
			if (is_digit(*fmt))
    871b:	8a 00                	mov    (%eax),%al
    871d:	83 e8 30             	sub    $0x30,%eax
    8720:	3c 09                	cmp    $0x9,%al
    8722:	77 28                	ja     874c <vsprintf+0x10e>
{
    8724:	8d 5c 24 24          	lea    0x24(%esp),%ebx
	int i=0;
    8728:	b9 00 00 00 00       	mov    $0x0,%ecx
		i = i*10 + *((*s)++) - '0';
    872d:	8d 0c 89             	lea    (%ecx,%ecx,4),%ecx
    8730:	8b 13                	mov    (%ebx),%edx
    8732:	0f be 02             	movsbl (%edx),%eax
    8735:	8d 4c 48 d0          	lea    -0x30(%eax,%ecx,2),%ecx
    8739:	8d 42 01             	lea    0x1(%edx),%eax
    873c:	89 03                	mov    %eax,(%ebx)
    873e:	8a 42 01             	mov    0x1(%edx),%al
    8741:	83 e8 30             	sub    $0x30,%eax
    8744:	3c 09                	cmp    $0x9,%al
    8746:	76 e5                	jbe    872d <vsprintf+0xef>
{
    8748:	89 ca                	mov    %ecx,%edx
    874a:	eb 15                	jmp    8761 <vsprintf+0x123>
				precision = skip_atoi(&fmt);
			else if (*fmt == '*') {
    874c:	8b 44 24 24          	mov    0x24(%esp),%eax
    8750:	80 38 2a             	cmpb   $0x2a,(%eax)
    8753:	75 0c                	jne    8761 <vsprintf+0x123>
				/* it's the next argument */
				precision = va_arg(args, int);
    8755:	83 44 24 28 04       	addl   $0x4,0x28(%esp)
    875a:	8b 4c 24 28          	mov    0x28(%esp),%ecx
    875e:	8b 51 fc             	mov    -0x4(%ecx),%edx
			}
			if (precision < 0)
    8761:	85 d2                	test   %edx,%edx
    8763:	79 05                	jns    876a <vsprintf+0x12c>
				precision = 0;
    8765:	ba 00 00 00 00       	mov    $0x0,%edx
		}

		/* get the conversion qualifier */
		qualifier = -1;
		if (*fmt == 'h' || *fmt == 'l' || *fmt == 'L') {
    876a:	8b 44 24 24          	mov    0x24(%esp),%eax
    876e:	80 38 68             	cmpb   $0x68,(%eax)
    8771:	74 0a                	je     877d <vsprintf+0x13f>
    8773:	80 38 6c             	cmpb   $0x6c,(%eax)
    8776:	74 05                	je     877d <vsprintf+0x13f>
    8778:	80 38 4c             	cmpb   $0x4c,(%eax)
    877b:	75 04                	jne    8781 <vsprintf+0x143>
			qualifier = *fmt;
			++fmt;
    877d:	ff 44 24 24          	incl   0x24(%esp)
		}

		switch (*fmt) {
    8781:	8b 44 24 24          	mov    0x24(%esp),%eax
    8785:	0f be 00             	movsbl (%eax),%eax
    8788:	83 e8 58             	sub    $0x58,%eax
    878b:	83 f8 20             	cmp    $0x20,%eax
    878e:	0f 87 79 01 00 00    	ja     890d <vsprintf+0x2cf>
    8794:	ff 24 85 30 87 01 00 	jmp    *0x18730(,%eax,4)
		case 'c':
			if (!(flags & LEFT))
    879b:	f6 44 24 08 10       	testb  $0x10,0x8(%esp)
    87a0:	75 0e                	jne    87b0 <vsprintf+0x172>
				while (--field_width > 0)
					*str++ = ' ';
    87a2:	4d                   	dec    %ebp
    87a3:	85 ed                	test   %ebp,%ebp
    87a5:	7e 09                	jle    87b0 <vsprintf+0x172>
    87a7:	c6 06 20             	movb   $0x20,(%esi)
    87aa:	46                   	inc    %esi
    87ab:	4d                   	dec    %ebp
    87ac:	85 ed                	test   %ebp,%ebp
    87ae:	7f f7                	jg     87a7 <vsprintf+0x169>
			*str++ = (unsigned char) va_arg(args, int);
    87b0:	83 44 24 28 04       	addl   $0x4,0x28(%esp)
    87b5:	89 f2                	mov    %esi,%edx
    87b7:	46                   	inc    %esi
    87b8:	8b 7c 24 28          	mov    0x28(%esp),%edi
    87bc:	8b 47 fc             	mov    -0x4(%edi),%eax
    87bf:	88 02                	mov    %al,(%edx)
			while (--field_width > 0)
				*str++ = ' ';
    87c1:	4d                   	dec    %ebp
    87c2:	85 ed                	test   %ebp,%ebp
    87c4:	0f 8e 64 01 00 00    	jle    892e <vsprintf+0x2f0>
    87ca:	c6 06 20             	movb   $0x20,(%esi)
    87cd:	46                   	inc    %esi
    87ce:	4d                   	dec    %ebp
    87cf:	85 ed                	test   %ebp,%ebp
    87d1:	7f f7                	jg     87ca <vsprintf+0x18c>
			break;
    87d3:	e9 56 01 00 00       	jmp    892e <vsprintf+0x2f0>

		case 's':
			s = va_arg(args, char *);
    87d8:	83 44 24 28 04       	addl   $0x4,0x28(%esp)
    87dd:	8b 44 24 28          	mov    0x28(%esp),%eax
    87e1:	8b 58 fc             	mov    -0x4(%eax),%ebx
}

extern inline int strlen(const char * s)
{
register int __res ;
__asm__("cld\n\t"
    87e4:	b8 00 00 00 00       	mov    $0x0,%eax
    87e9:	b9 ff ff ff ff       	mov    $0xffffffff,%ecx
{
    87ee:	89 df                	mov    %ebx,%edi
    87f0:	fc                   	cld    
    87f1:	f2 ae                	repnz scas %es:(%edi),%al
    87f3:	f7 d1                	not    %ecx
    87f5:	49                   	dec    %ecx
			len = strlen(s);
			if (precision < 0)
    87f6:	85 d2                	test   %edx,%edx
    87f8:	78 06                	js     8800 <vsprintf+0x1c2>
				precision = len;
			else if (len > precision)
    87fa:	39 d1                	cmp    %edx,%ecx
    87fc:	7e 02                	jle    8800 <vsprintf+0x1c2>
				len = precision;
    87fe:	89 d1                	mov    %edx,%ecx

			if (!(flags & LEFT))
    8800:	f6 44 24 08 10       	testb  $0x10,0x8(%esp)
    8805:	75 12                	jne    8819 <vsprintf+0x1db>
				while (len < field_width--)
					*str++ = ' ';
    8807:	89 e8                	mov    %ebp,%eax
    8809:	4d                   	dec    %ebp
    880a:	39 c8                	cmp    %ecx,%eax
    880c:	7e 0b                	jle    8819 <vsprintf+0x1db>
    880e:	c6 06 20             	movb   $0x20,(%esi)
    8811:	46                   	inc    %esi
    8812:	89 e8                	mov    %ebp,%eax
    8814:	4d                   	dec    %ebp
    8815:	39 c8                	cmp    %ecx,%eax
    8817:	7f f5                	jg     880e <vsprintf+0x1d0>
			for (i = 0; i < len; ++i)
    8819:	ba 00 00 00 00       	mov    $0x0,%edx
    881e:	39 ca                	cmp    %ecx,%edx
    8820:	7d 0b                	jge    882d <vsprintf+0x1ef>
				*str++ = *s++;
    8822:	8a 03                	mov    (%ebx),%al
    8824:	43                   	inc    %ebx
    8825:	88 06                	mov    %al,(%esi)
    8827:	46                   	inc    %esi
			for (i = 0; i < len; ++i)
    8828:	42                   	inc    %edx
    8829:	39 ca                	cmp    %ecx,%edx
    882b:	7c f5                	jl     8822 <vsprintf+0x1e4>
			while (len < field_width--)
				*str++ = ' ';
    882d:	89 e8                	mov    %ebp,%eax
    882f:	4d                   	dec    %ebp
    8830:	39 c8                	cmp    %ecx,%eax
    8832:	0f 8e f6 00 00 00    	jle    892e <vsprintf+0x2f0>
    8838:	c6 06 20             	movb   $0x20,(%esi)
    883b:	46                   	inc    %esi
    883c:	89 e8                	mov    %ebp,%eax
    883e:	4d                   	dec    %ebp
    883f:	39 c8                	cmp    %ecx,%eax
    8841:	7f f5                	jg     8838 <vsprintf+0x1fa>
			break;
    8843:	e9 e6 00 00 00       	jmp    892e <vsprintf+0x2f0>

		case 'o':
			str = number(str, va_arg(args, unsigned long), 8,
    8848:	83 ec 08             	sub    $0x8,%esp
    884b:	ff 74 24 10          	pushl  0x10(%esp)
    884f:	52                   	push   %edx
    8850:	55                   	push   %ebp
    8851:	6a 08                	push   $0x8
    8853:	83 44 24 40 04       	addl   $0x4,0x40(%esp)
    8858:	8b 44 24 40          	mov    0x40(%esp),%eax
    885c:	ff 70 fc             	pushl  -0x4(%eax)
    885f:	56                   	push   %esi
    8860:	e8 9f fb ff ff       	call   8404 <number>
    8865:	89 c6                	mov    %eax,%esi
				field_width, precision, flags);
			break;
    8867:	83 c4 20             	add    $0x20,%esp
    886a:	e9 bf 00 00 00       	jmp    892e <vsprintf+0x2f0>

		case 'p':
			if (field_width == -1) {
    886f:	83 fd ff             	cmp    $0xffffffff,%ebp
    8872:	75 0a                	jne    887e <vsprintf+0x240>
				field_width = 8;
    8874:	bd 08 00 00 00       	mov    $0x8,%ebp
				flags |= ZEROPAD;
    8879:	83 4c 24 08 01       	orl    $0x1,0x8(%esp)
			}
			str = number(str,
    887e:	83 ec 08             	sub    $0x8,%esp
    8881:	ff 74 24 10          	pushl  0x10(%esp)
    8885:	52                   	push   %edx
    8886:	55                   	push   %ebp
    8887:	6a 10                	push   $0x10
    8889:	83 44 24 40 04       	addl   $0x4,0x40(%esp)
    888e:	8b 4c 24 40          	mov    0x40(%esp),%ecx
    8892:	ff 71 fc             	pushl  -0x4(%ecx)
    8895:	56                   	push   %esi
    8896:	e8 69 fb ff ff       	call   8404 <number>
    889b:	89 c6                	mov    %eax,%esi
				(unsigned long) va_arg(args, void *), 16,
				field_width, precision, flags);
			break;
    889d:	83 c4 20             	add    $0x20,%esp
    88a0:	e9 89 00 00 00       	jmp    892e <vsprintf+0x2f0>

		case 'x':
			flags |= SMALL;
    88a5:	83 4c 24 08 40       	orl    $0x40,0x8(%esp)
		case 'X':
			str = number(str, va_arg(args, unsigned long), 16,
    88aa:	83 ec 08             	sub    $0x8,%esp
    88ad:	ff 74 24 10          	pushl  0x10(%esp)
    88b1:	52                   	push   %edx
    88b2:	55                   	push   %ebp
    88b3:	6a 10                	push   $0x10
    88b5:	83 44 24 40 04       	addl   $0x4,0x40(%esp)
    88ba:	8b 7c 24 40          	mov    0x40(%esp),%edi
    88be:	ff 77 fc             	pushl  -0x4(%edi)
    88c1:	56                   	push   %esi
    88c2:	e8 3d fb ff ff       	call   8404 <number>
    88c7:	89 c6                	mov    %eax,%esi
				field_width, precision, flags);
			break;
    88c9:	83 c4 20             	add    $0x20,%esp
    88cc:	eb 60                	jmp    892e <vsprintf+0x2f0>

		case 'd':
		case 'i':
			flags |= SIGN;
    88ce:	83 4c 24 08 02       	orl    $0x2,0x8(%esp)
		case 'u':
			str = number(str, va_arg(args, unsigned long), 10,
    88d3:	83 ec 08             	sub    $0x8,%esp
    88d6:	ff 74 24 10          	pushl  0x10(%esp)
    88da:	52                   	push   %edx
    88db:	55                   	push   %ebp
    88dc:	6a 0a                	push   $0xa
    88de:	83 44 24 40 04       	addl   $0x4,0x40(%esp)
    88e3:	8b 44 24 40          	mov    0x40(%esp),%eax
    88e7:	ff 70 fc             	pushl  -0x4(%eax)
    88ea:	56                   	push   %esi
    88eb:	e8 14 fb ff ff       	call   8404 <number>
    88f0:	89 c6                	mov    %eax,%esi
				field_width, precision, flags);
			break;
    88f2:	83 c4 20             	add    $0x20,%esp
    88f5:	eb 37                	jmp    892e <vsprintf+0x2f0>

		case 'n':
			ip = va_arg(args, int *);
    88f7:	83 44 24 28 04       	addl   $0x4,0x28(%esp)
    88fc:	8b 4c 24 28          	mov    0x28(%esp),%ecx
    8900:	8b 51 fc             	mov    -0x4(%ecx),%edx
			*ip = (str - buf);
    8903:	89 f0                	mov    %esi,%eax
    8905:	2b 44 24 20          	sub    0x20(%esp),%eax
    8909:	89 02                	mov    %eax,(%edx)
			break;
    890b:	eb 21                	jmp    892e <vsprintf+0x2f0>

		default:
			if (*fmt != '%')
    890d:	8b 44 24 24          	mov    0x24(%esp),%eax
    8911:	80 38 25             	cmpb   $0x25,(%eax)
    8914:	74 04                	je     891a <vsprintf+0x2dc>
				*str++ = '%';
    8916:	c6 06 25             	movb   $0x25,(%esi)
    8919:	46                   	inc    %esi
			if (*fmt)
    891a:	8b 44 24 24          	mov    0x24(%esp),%eax
    891e:	80 38 00             	cmpb   $0x0,(%eax)
    8921:	74 07                	je     892a <vsprintf+0x2ec>
				*str++ = *fmt;
    8923:	8a 00                	mov    (%eax),%al
    8925:	88 06                	mov    %al,(%esi)
    8927:	46                   	inc    %esi
    8928:	eb 04                	jmp    892e <vsprintf+0x2f0>
			else
				--fmt;
    892a:	ff 4c 24 24          	decl   0x24(%esp)
	for (str=buf ; *fmt ; ++fmt) {
    892e:	ff 44 24 24          	incl   0x24(%esp)
    8932:	8b 44 24 24          	mov    0x24(%esp),%eax
    8936:	80 38 00             	cmpb   $0x0,(%eax)
    8939:	0f 85 17 fd ff ff    	jne    8656 <vsprintf+0x18>
			break;
		}
	}
	*str = '\0';
    893f:	c6 06 00             	movb   $0x0,(%esi)
	return str-buf;
    8942:	89 f0                	mov    %esi,%eax
    8944:	2b 44 24 20          	sub    0x20(%esp),%eax
}
    8948:	83 c4 0c             	add    $0xc,%esp
    894b:	5b                   	pop    %ebx
    894c:	5e                   	pop    %esi
    894d:	5f                   	pop    %edi
    894e:	5d                   	pop    %ebp
    894f:	c3                   	ret    

00008950 <sys_ftime>:
#include <sys/utsname.h>

int sys_ftime()
{
	return -ENOSYS;
}
    8950:	b8 da ff ff ff       	mov    $0xffffffda,%eax
    8955:	c3                   	ret    

00008956 <sys_break>:

int sys_break()
{
	return -ENOSYS;
}
    8956:	b8 da ff ff ff       	mov    $0xffffffda,%eax
    895b:	c3                   	ret    

0000895c <sys_ptrace>:

int sys_ptrace()
{
	return -ENOSYS;
}
    895c:	b8 da ff ff ff       	mov    $0xffffffda,%eax
    8961:	c3                   	ret    

00008962 <sys_stty>:

int sys_stty()
{
	return -ENOSYS;
}
    8962:	b8 da ff ff ff       	mov    $0xffffffda,%eax
    8967:	c3                   	ret    

00008968 <sys_gtty>:

int sys_gtty()
{
	return -ENOSYS;
}
    8968:	b8 da ff ff ff       	mov    $0xffffffda,%eax
    896d:	c3                   	ret    

0000896e <sys_rename>:

int sys_rename()
{
	return -ENOSYS;
}
    896e:	b8 da ff ff ff       	mov    $0xffffffda,%eax
    8973:	c3                   	ret    

00008974 <sys_prof>:

int sys_prof()
{
	return -ENOSYS;
}
    8974:	b8 da ff ff ff       	mov    $0xffffffda,%eax
    8979:	c3                   	ret    

0000897a <sys_setregid>:

int sys_setregid(int rgid, int egid)
{
    897a:	53                   	push   %ebx
    897b:	8b 4c 24 08          	mov    0x8(%esp),%ecx
    897f:	8b 5c 24 0c          	mov    0xc(%esp),%ebx
	if (rgid>0) {
    8983:	85 c9                	test   %ecx,%ecx
    8985:	7e 2c                	jle    89b3 <sys_setregid+0x39>
		if ((current->gid == rgid) || 
    8987:	8b 15 20 bc 01 00    	mov    0x1bc20,%edx
    898d:	0f b7 82 46 02 00 00 	movzwl 0x246(%edx),%eax
    8994:	39 c8                	cmp    %ecx,%eax
    8996:	74 0f                	je     89a7 <sys_setregid+0x2d>
		    suser())
			current->gid = rgid;
		else
			return(-EPERM);
    8998:	b8 ff ff ff ff       	mov    $0xffffffff,%eax
		if ((current->gid == rgid) || 
    899d:	66 83 ba 42 02 00 00 	cmpw   $0x0,0x242(%edx)
    89a4:	00 
    89a5:	75 57                	jne    89fe <sys_setregid+0x84>
			current->gid = rgid;
    89a7:	a1 20 bc 01 00       	mov    0x1bc20,%eax
    89ac:	66 89 88 46 02 00 00 	mov    %cx,0x246(%eax)
	}
	if (egid>0) {
    89b3:	85 db                	test   %ebx,%ebx
    89b5:	7e 42                	jle    89f9 <sys_setregid+0x7f>
		if ((current->gid == egid) ||
    89b7:	8b 15 20 bc 01 00    	mov    0x1bc20,%edx
    89bd:	0f b7 82 46 02 00 00 	movzwl 0x246(%edx),%eax
    89c4:	39 d8                	cmp    %ebx,%eax
    89c6:	74 25                	je     89ed <sys_setregid+0x73>
    89c8:	0f b7 82 48 02 00 00 	movzwl 0x248(%edx),%eax
    89cf:	39 d8                	cmp    %ebx,%eax
    89d1:	74 1a                	je     89ed <sys_setregid+0x73>
    89d3:	0f b7 82 4a 02 00 00 	movzwl 0x24a(%edx),%eax
    89da:	39 d8                	cmp    %ebx,%eax
    89dc:	74 0f                	je     89ed <sys_setregid+0x73>
		    (current->egid == egid) ||
		    (current->sgid == egid) ||
		    suser())
			current->egid = egid;
		else
			return(-EPERM);
    89de:	b8 ff ff ff ff       	mov    $0xffffffff,%eax
		if ((current->gid == egid) ||
    89e3:	66 83 ba 42 02 00 00 	cmpw   $0x0,0x242(%edx)
    89ea:	00 
    89eb:	75 11                	jne    89fe <sys_setregid+0x84>
			current->egid = egid;
    89ed:	a1 20 bc 01 00       	mov    0x1bc20,%eax
    89f2:	66 89 98 48 02 00 00 	mov    %bx,0x248(%eax)
	}
	return 0;
    89f9:	b8 00 00 00 00       	mov    $0x0,%eax
}
    89fe:	5b                   	pop    %ebx
    89ff:	c3                   	ret    

00008a00 <sys_setgid>:

int sys_setgid(int gid)
{
    8a00:	53                   	push   %ebx
{
    8a01:	8b 54 24 08          	mov    0x8(%esp),%edx
    8a05:	89 d3                	mov    %edx,%ebx
	if (rgid>0) {
    8a07:	85 d2                	test   %edx,%edx
    8a09:	7e 72                	jle    8a7d <sys_setgid+0x7d>
		if ((current->gid == rgid) || 
    8a0b:	8b 0d 20 bc 01 00    	mov    0x1bc20,%ecx
    8a11:	0f b7 81 46 02 00 00 	movzwl 0x246(%ecx),%eax
    8a18:	39 d0                	cmp    %edx,%eax
    8a1a:	74 0f                	je     8a2b <sys_setgid+0x2b>
			current->gid = rgid;
    8a1c:	b8 ff ff ff ff       	mov    $0xffffffff,%eax
		if ((current->gid == rgid) || 
    8a21:	66 83 b9 42 02 00 00 	cmpw   $0x0,0x242(%ecx)
    8a28:	00 
    8a29:	75 57                	jne    8a82 <sys_setgid+0x82>
			current->gid = rgid;
    8a2b:	a1 20 bc 01 00       	mov    0x1bc20,%eax
    8a30:	66 89 98 46 02 00 00 	mov    %bx,0x246(%eax)
	if (egid>0) {
    8a37:	85 d2                	test   %edx,%edx
    8a39:	7e 42                	jle    8a7d <sys_setgid+0x7d>
		if ((current->gid == egid) ||
    8a3b:	8b 0d 20 bc 01 00    	mov    0x1bc20,%ecx
    8a41:	0f b7 81 46 02 00 00 	movzwl 0x246(%ecx),%eax
    8a48:	39 d0                	cmp    %edx,%eax
    8a4a:	74 25                	je     8a71 <sys_setgid+0x71>
    8a4c:	0f b7 81 48 02 00 00 	movzwl 0x248(%ecx),%eax
    8a53:	39 d0                	cmp    %edx,%eax
    8a55:	74 1a                	je     8a71 <sys_setgid+0x71>
    8a57:	0f b7 81 4a 02 00 00 	movzwl 0x24a(%ecx),%eax
    8a5e:	39 d0                	cmp    %edx,%eax
    8a60:	74 0f                	je     8a71 <sys_setgid+0x71>
			current->egid = egid;
    8a62:	b8 ff ff ff ff       	mov    $0xffffffff,%eax
		if ((current->gid == egid) ||
    8a67:	66 83 b9 42 02 00 00 	cmpw   $0x0,0x242(%ecx)
    8a6e:	00 
    8a6f:	75 11                	jne    8a82 <sys_setgid+0x82>
			current->egid = egid;
    8a71:	a1 20 bc 01 00       	mov    0x1bc20,%eax
    8a76:	66 89 90 48 02 00 00 	mov    %dx,0x248(%eax)
	}
    8a7d:	b8 00 00 00 00       	mov    $0x0,%eax
	return(sys_setregid(gid, gid));
}
    8a82:	5b                   	pop    %ebx
    8a83:	c3                   	ret    

00008a84 <sys_acct>:

int sys_acct()
{
	return -ENOSYS;
}
    8a84:	b8 da ff ff ff       	mov    $0xffffffda,%eax
    8a89:	c3                   	ret    

00008a8a <sys_phys>:

int sys_phys()
{
	return -ENOSYS;
}
    8a8a:	b8 da ff ff ff       	mov    $0xffffffda,%eax
    8a8f:	c3                   	ret    

00008a90 <sys_lock>:

int sys_lock()
{
	return -ENOSYS;
}
    8a90:	b8 da ff ff ff       	mov    $0xffffffda,%eax
    8a95:	c3                   	ret    

00008a96 <sys_mpx>:

int sys_mpx()
{
	return -ENOSYS;
}
    8a96:	b8 da ff ff ff       	mov    $0xffffffda,%eax
    8a9b:	c3                   	ret    

00008a9c <sys_ulimit>:

int sys_ulimit()
{
	return -ENOSYS;
}
    8a9c:	b8 da ff ff ff       	mov    $0xffffffda,%eax
    8aa1:	c3                   	ret    

00008aa2 <sys_time>:

int sys_time(long * tloc)
{
    8aa2:	56                   	push   %esi
    8aa3:	53                   	push   %ebx
    8aa4:	83 ec 04             	sub    $0x4,%esp
    8aa7:	8b 74 24 10          	mov    0x10(%esp),%esi
	int i;

	i = CURRENT_TIME;
    8aab:	8b 0d c0 e9 01 00    	mov    0x1e9c0,%ecx
    8ab1:	b8 1f 85 eb 51       	mov    $0x51eb851f,%eax
    8ab6:	f7 e9                	imul   %ecx
    8ab8:	89 d0                	mov    %edx,%eax
    8aba:	c1 f8 05             	sar    $0x5,%eax
    8abd:	c1 f9 1f             	sar    $0x1f,%ecx
    8ac0:	89 c3                	mov    %eax,%ebx
    8ac2:	29 cb                	sub    %ecx,%ebx
    8ac4:	03 1d c4 e9 01 00    	add    0x1e9c4,%ebx
	if (tloc) {
    8aca:	85 f6                	test   %esi,%esi
    8acc:	74 11                	je     8adf <sys_time+0x3d>
		verify_area(tloc,4);
    8ace:	83 ec 08             	sub    $0x8,%esp
    8ad1:	6a 04                	push   $0x4
    8ad3:	56                   	push   %esi
    8ad4:	e8 93 f3 ff ff       	call   7e6c <verify_area>
{
__asm__ ("movw %0,%%fs:%1"::"r" (val),"m" (*addr));
}

static inline void put_fs_long(unsigned long val,unsigned long * addr)
{
    8ad9:	83 c4 10             	add    $0x10,%esp
__asm__ ("movl %0,%%fs:%1"::"r" (val),"m" (*addr));
    8adc:	64 89 1e             	mov    %ebx,%fs:(%esi)
		put_fs_long(i,(unsigned long *)tloc);
	}
	return i;
}
    8adf:	89 d8                	mov    %ebx,%eax
    8ae1:	83 c4 04             	add    $0x4,%esp
    8ae4:	5b                   	pop    %ebx
    8ae5:	5e                   	pop    %esi
    8ae6:	c3                   	ret    

00008ae7 <sys_setreuid>:
/*
 * Unprivileged users may change the real user id to the effective uid
 * or vice versa.
 */
int sys_setreuid(int ruid, int euid)
{
    8ae7:	56                   	push   %esi
    8ae8:	53                   	push   %ebx
    8ae9:	8b 4c 24 0c          	mov    0xc(%esp),%ecx
    8aed:	8b 74 24 10          	mov    0x10(%esp),%esi
	int old_ruid = current->uid;
    8af1:	8b 15 20 bc 01 00    	mov    0x1bc20,%edx
    8af7:	0f b7 9a 40 02 00 00 	movzwl 0x240(%edx),%ebx
	
	if (ruid>0) {
    8afe:	85 c9                	test   %ecx,%ecx
    8b00:	7e 2a                	jle    8b2c <sys_setreuid+0x45>
		if ((current->euid==ruid) ||
    8b02:	0f b7 82 42 02 00 00 	movzwl 0x242(%edx),%eax
    8b09:	39 c8                	cmp    %ecx,%eax
    8b0b:	74 13                	je     8b20 <sys_setreuid+0x39>
    8b0d:	39 cb                	cmp    %ecx,%ebx
    8b0f:	74 0f                	je     8b20 <sys_setreuid+0x39>
                    (old_ruid == ruid) ||
		    suser())
			current->uid = ruid;
		else
			return(-EPERM);
    8b11:	b8 ff ff ff ff       	mov    $0xffffffff,%eax
		if ((current->euid==ruid) ||
    8b16:	66 83 ba 42 02 00 00 	cmpw   $0x0,0x242(%edx)
    8b1d:	00 
    8b1e:	75 55                	jne    8b75 <sys_setreuid+0x8e>
			current->uid = ruid;
    8b20:	a1 20 bc 01 00       	mov    0x1bc20,%eax
    8b25:	66 89 88 40 02 00 00 	mov    %cx,0x240(%eax)
	}
	if (euid>0) {
    8b2c:	85 f6                	test   %esi,%esi
    8b2e:	7e 40                	jle    8b70 <sys_setreuid+0x89>
		if ((old_ruid == euid) ||
    8b30:	39 f3                	cmp    %esi,%ebx
    8b32:	74 1b                	je     8b4f <sys_setreuid+0x68>
    8b34:	8b 15 20 bc 01 00    	mov    0x1bc20,%edx
    8b3a:	0f b7 82 42 02 00 00 	movzwl 0x242(%edx),%eax
    8b41:	39 f0                	cmp    %esi,%eax
    8b43:	74 0a                	je     8b4f <sys_setreuid+0x68>
    8b45:	66 83 ba 42 02 00 00 	cmpw   $0x0,0x242(%edx)
    8b4c:	00 
    8b4d:	75 0e                	jne    8b5d <sys_setreuid+0x76>
                    (current->euid == euid) ||
		    suser())
			current->euid = euid;
    8b4f:	a1 20 bc 01 00       	mov    0x1bc20,%eax
    8b54:	66 89 b0 42 02 00 00 	mov    %si,0x242(%eax)
    8b5b:	eb 13                	jmp    8b70 <sys_setreuid+0x89>
		else {
			current->uid = old_ruid;
    8b5d:	a1 20 bc 01 00       	mov    0x1bc20,%eax
    8b62:	66 89 98 40 02 00 00 	mov    %bx,0x240(%eax)
			return(-EPERM);
    8b69:	b8 ff ff ff ff       	mov    $0xffffffff,%eax
    8b6e:	eb 05                	jmp    8b75 <sys_setreuid+0x8e>
		}
	}
	return 0;
    8b70:	b8 00 00 00 00       	mov    $0x0,%eax
}
    8b75:	5b                   	pop    %ebx
    8b76:	5e                   	pop    %esi
    8b77:	c3                   	ret    

00008b78 <sys_setuid>:

int sys_setuid(int uid)
{
    8b78:	56                   	push   %esi
    8b79:	53                   	push   %ebx
{
    8b7a:	8b 54 24 0c          	mov    0xc(%esp),%edx
    8b7e:	89 d6                	mov    %edx,%esi
	int old_ruid = current->uid;
    8b80:	8b 0d 20 bc 01 00    	mov    0x1bc20,%ecx
    8b86:	0f b7 99 40 02 00 00 	movzwl 0x240(%ecx),%ebx
	if (ruid>0) {
    8b8d:	85 d2                	test   %edx,%edx
    8b8f:	7e 6e                	jle    8bff <sys_setuid+0x87>
		if ((current->euid==ruid) ||
    8b91:	0f b7 81 42 02 00 00 	movzwl 0x242(%ecx),%eax
    8b98:	39 d0                	cmp    %edx,%eax
    8b9a:	74 13                	je     8baf <sys_setuid+0x37>
    8b9c:	39 d3                	cmp    %edx,%ebx
    8b9e:	74 0f                	je     8baf <sys_setuid+0x37>
			current->uid = ruid;
    8ba0:	b8 ff ff ff ff       	mov    $0xffffffff,%eax
		if ((current->euid==ruid) ||
    8ba5:	66 83 b9 42 02 00 00 	cmpw   $0x0,0x242(%ecx)
    8bac:	00 
    8bad:	75 55                	jne    8c04 <sys_setuid+0x8c>
			current->uid = ruid;
    8baf:	a1 20 bc 01 00       	mov    0x1bc20,%eax
    8bb4:	66 89 b0 40 02 00 00 	mov    %si,0x240(%eax)
	if (euid>0) {
    8bbb:	85 d2                	test   %edx,%edx
    8bbd:	7e 40                	jle    8bff <sys_setuid+0x87>
		if ((old_ruid == euid) ||
    8bbf:	39 d3                	cmp    %edx,%ebx
    8bc1:	74 1b                	je     8bde <sys_setuid+0x66>
    8bc3:	8b 0d 20 bc 01 00    	mov    0x1bc20,%ecx
    8bc9:	0f b7 81 42 02 00 00 	movzwl 0x242(%ecx),%eax
    8bd0:	39 d0                	cmp    %edx,%eax
    8bd2:	74 0a                	je     8bde <sys_setuid+0x66>
    8bd4:	66 83 b9 42 02 00 00 	cmpw   $0x0,0x242(%ecx)
    8bdb:	00 
    8bdc:	75 0e                	jne    8bec <sys_setuid+0x74>
			current->euid = euid;
    8bde:	a1 20 bc 01 00       	mov    0x1bc20,%eax
    8be3:	66 89 90 42 02 00 00 	mov    %dx,0x242(%eax)
    8bea:	eb 13                	jmp    8bff <sys_setuid+0x87>
			current->uid = old_ruid;
    8bec:	a1 20 bc 01 00       	mov    0x1bc20,%eax
    8bf1:	66 89 98 40 02 00 00 	mov    %bx,0x240(%eax)
    8bf8:	b8 ff ff ff ff       	mov    $0xffffffff,%eax
    8bfd:	eb 05                	jmp    8c04 <sys_setuid+0x8c>
	}
    8bff:	b8 00 00 00 00       	mov    $0x0,%eax
	return(sys_setreuid(uid, uid));
}
    8c04:	5b                   	pop    %ebx
    8c05:	5e                   	pop    %esi
    8c06:	c3                   	ret    

00008c07 <sys_stime>:

int sys_stime(long * tptr)
{
    8c07:	53                   	push   %ebx
    8c08:	8b 4c 24 08          	mov    0x8(%esp),%ecx
	if (!suser())
		return -EPERM;
    8c0c:	ba ff ff ff ff       	mov    $0xffffffff,%edx
	if (!suser())
    8c11:	a1 20 bc 01 00       	mov    0x1bc20,%eax
    8c16:	66 83 b8 42 02 00 00 	cmpw   $0x0,0x242(%eax)
    8c1d:	00 
    8c1e:	75 27                	jne    8c47 <sys_stime+0x40>
	__asm__ ("movl %%fs:%1,%0":"=r" (_v):"m" (*addr)); \
    8c20:	64 8b 19             	mov    %fs:(%ecx),%ebx
{
    8c23:	8b 0d c0 e9 01 00    	mov    0x1e9c0,%ecx
    8c29:	b8 1f 85 eb 51       	mov    $0x51eb851f,%eax
    8c2e:	f7 e9                	imul   %ecx
    8c30:	89 d0                	mov    %edx,%eax
    8c32:	c1 f8 05             	sar    $0x5,%eax
    8c35:	c1 f9 1f             	sar    $0x1f,%ecx
    8c38:	29 c8                	sub    %ecx,%eax
    8c3a:	29 c3                	sub    %eax,%ebx
    8c3c:	89 1d c4 e9 01 00    	mov    %ebx,0x1e9c4
	startup_time = get_fs_long((unsigned long *)tptr) - jiffies/HZ;
	return 0;
    8c42:	ba 00 00 00 00       	mov    $0x0,%edx
}
    8c47:	89 d0                	mov    %edx,%eax
    8c49:	5b                   	pop    %ebx
    8c4a:	c3                   	ret    

00008c4b <sys_times>:

int sys_times(struct tms * tbuf)
{
    8c4b:	53                   	push   %ebx
    8c4c:	83 ec 08             	sub    $0x8,%esp
    8c4f:	8b 5c 24 10          	mov    0x10(%esp),%ebx
	if (tbuf) {
    8c53:	85 db                	test   %ebx,%ebx
    8c55:	74 3b                	je     8c92 <sys_times+0x47>
		verify_area(tbuf,sizeof *tbuf);
    8c57:	83 ec 08             	sub    $0x8,%esp
    8c5a:	6a 10                	push   $0x10
    8c5c:	53                   	push   %ebx
    8c5d:	e8 0a f2 ff ff       	call   7e6c <verify_area>
{
    8c62:	83 c4 10             	add    $0x10,%esp
    8c65:	8b 15 20 bc 01 00    	mov    0x1bc20,%edx
    8c6b:	8b 82 50 02 00 00    	mov    0x250(%edx),%eax
__asm__ ("movl %0,%%fs:%1"::"r" (val),"m" (*addr));
    8c71:	64 89 03             	mov    %eax,%fs:(%ebx)
{
    8c74:	8b 82 54 02 00 00    	mov    0x254(%edx),%eax
__asm__ ("movl %0,%%fs:%1"::"r" (val),"m" (*addr));
    8c7a:	64 89 43 04          	mov    %eax,%fs:0x4(%ebx)
{
    8c7e:	8b 82 58 02 00 00    	mov    0x258(%edx),%eax
__asm__ ("movl %0,%%fs:%1"::"r" (val),"m" (*addr));
    8c84:	64 89 43 08          	mov    %eax,%fs:0x8(%ebx)
{
    8c88:	8b 82 5c 02 00 00    	mov    0x25c(%edx),%eax
__asm__ ("movl %0,%%fs:%1"::"r" (val),"m" (*addr));
    8c8e:	64 89 43 0c          	mov    %eax,%fs:0xc(%ebx)
		put_fs_long(current->utime,(unsigned long *)&tbuf->tms_utime);
		put_fs_long(current->stime,(unsigned long *)&tbuf->tms_stime);
		put_fs_long(current->cutime,(unsigned long *)&tbuf->tms_cutime);
		put_fs_long(current->cstime,(unsigned long *)&tbuf->tms_cstime);
	}
	return jiffies;
    8c92:	a1 c0 e9 01 00       	mov    0x1e9c0,%eax
}
    8c97:	83 c4 08             	add    $0x8,%esp
    8c9a:	5b                   	pop    %ebx
    8c9b:	c3                   	ret    

00008c9c <sys_brk>:

int sys_brk(unsigned long end_data_seg)
{
    8c9c:	8b 4c 24 04          	mov    0x4(%esp),%ecx
	if (end_data_seg >= current->end_code &&
    8ca0:	8b 15 20 bc 01 00    	mov    0x1bc20,%edx
    8ca6:	39 8a 1c 02 00 00    	cmp    %ecx,0x21c(%edx)
    8cac:	77 15                	ja     8cc3 <sys_brk+0x27>
    8cae:	8b 82 28 02 00 00    	mov    0x228(%edx),%eax
    8cb4:	2d 00 40 00 00       	sub    $0x4000,%eax
    8cb9:	39 c8                	cmp    %ecx,%eax
    8cbb:	76 06                	jbe    8cc3 <sys_brk+0x27>
	    end_data_seg < current->start_stack - 16384)
		current->brk = end_data_seg;
    8cbd:	89 8a 24 02 00 00    	mov    %ecx,0x224(%edx)
	return current->brk;
    8cc3:	a1 20 bc 01 00       	mov    0x1bc20,%eax
    8cc8:	8b 80 24 02 00 00    	mov    0x224(%eax),%eax
}
    8cce:	c3                   	ret    

00008ccf <sys_setpgid>:
 * This needs some heave checking ...
 * I just haven't get the stomach for it. I also don't fully
 * understand sessions/pgrp etc. Let somebody who does explain it.
 */
int sys_setpgid(int pid, int pgid)
{
    8ccf:	57                   	push   %edi
    8cd0:	56                   	push   %esi
    8cd1:	53                   	push   %ebx
    8cd2:	8b 54 24 10          	mov    0x10(%esp),%edx
    8cd6:	8b 74 24 14          	mov    0x14(%esp),%esi
	int i;

	if (!pid)
    8cda:	85 d2                	test   %edx,%edx
    8cdc:	75 0b                	jne    8ce9 <sys_setpgid+0x1a>
		pid = current->pid;
    8cde:	a1 20 bc 01 00       	mov    0x1bc20,%eax
    8ce3:	8b 90 2c 02 00 00    	mov    0x22c(%eax),%edx
	if (!pgid)
    8ce9:	85 f6                	test   %esi,%esi
    8ceb:	75 0b                	jne    8cf8 <sys_setpgid+0x29>
		pgid = current->pid;
    8ced:	a1 20 bc 01 00       	mov    0x1bc20,%eax
    8cf2:	8b b0 2c 02 00 00    	mov    0x22c(%eax),%esi
	for (i=0 ; i<NR_TASKS ; i++)
    8cf8:	b9 00 00 00 00       	mov    $0x0,%ecx
    8cfd:	bb 40 bc 01 00       	mov    $0x1bc40,%ebx
		if (task[i] && task[i]->pid==pid) {
    8d02:	83 3c 8b 00          	cmpl   $0x0,(%ebx,%ecx,4)
    8d06:	74 44                	je     8d4c <sys_setpgid+0x7d>
    8d08:	8b 04 8b             	mov    (%ebx,%ecx,4),%eax
    8d0b:	39 90 2c 02 00 00    	cmp    %edx,0x22c(%eax)
    8d11:	75 39                	jne    8d4c <sys_setpgid+0x7d>
			if (task[i]->leader)
				return -EPERM;
    8d13:	bf ff ff ff ff       	mov    $0xffffffff,%edi
			if (task[i]->leader)
    8d18:	83 b8 3c 02 00 00 00 	cmpl   $0x0,0x23c(%eax)
    8d1f:	75 36                	jne    8d57 <sys_setpgid+0x88>
			if (task[i]->session != current->session)
    8d21:	8b 04 8b             	mov    (%ebx,%ecx,4),%eax
    8d24:	8b 90 38 02 00 00    	mov    0x238(%eax),%edx
				return -EPERM;
    8d2a:	bf ff ff ff ff       	mov    $0xffffffff,%edi
			if (task[i]->session != current->session)
    8d2f:	a1 20 bc 01 00       	mov    0x1bc20,%eax
    8d34:	3b 90 38 02 00 00    	cmp    0x238(%eax),%edx
    8d3a:	75 1b                	jne    8d57 <sys_setpgid+0x88>
			task[i]->pgrp = pgid;
    8d3c:	8b 04 8b             	mov    (%ebx,%ecx,4),%eax
    8d3f:	89 b0 34 02 00 00    	mov    %esi,0x234(%eax)
			return 0;
    8d45:	bf 00 00 00 00       	mov    $0x0,%edi
    8d4a:	eb 0b                	jmp    8d57 <sys_setpgid+0x88>
	for (i=0 ; i<NR_TASKS ; i++)
    8d4c:	41                   	inc    %ecx
    8d4d:	83 f9 3f             	cmp    $0x3f,%ecx
    8d50:	7e b0                	jle    8d02 <sys_setpgid+0x33>
		}
	return -ESRCH;
    8d52:	bf fd ff ff ff       	mov    $0xfffffffd,%edi
}
    8d57:	89 f8                	mov    %edi,%eax
    8d59:	5b                   	pop    %ebx
    8d5a:	5e                   	pop    %esi
    8d5b:	5f                   	pop    %edi
    8d5c:	c3                   	ret    

00008d5d <sys_getpgrp>:

int sys_getpgrp(void)
{
	return current->pgrp;
    8d5d:	a1 20 bc 01 00       	mov    0x1bc20,%eax
    8d62:	8b 80 34 02 00 00    	mov    0x234(%eax),%eax
}
    8d68:	c3                   	ret    

00008d69 <sys_setsid>:

int sys_setsid(void)
{
	if (current->leader && !suser())
    8d69:	8b 15 20 bc 01 00    	mov    0x1bc20,%edx
    8d6f:	83 ba 3c 02 00 00 00 	cmpl   $0x0,0x23c(%edx)
    8d76:	74 0f                	je     8d87 <sys_setsid+0x1e>
		return -EPERM;
    8d78:	b8 ff ff ff ff       	mov    $0xffffffff,%eax
	if (current->leader && !suser())
    8d7d:	66 83 ba 42 02 00 00 	cmpw   $0x0,0x242(%edx)
    8d84:	00 
    8d85:	75 40                	jne    8dc7 <sys_setsid+0x5e>
	current->leader = 1;
    8d87:	a1 20 bc 01 00       	mov    0x1bc20,%eax
    8d8c:	c7 80 3c 02 00 00 01 	movl   $0x1,0x23c(%eax)
    8d93:	00 00 00 
	current->session = current->pgrp = current->pid;
    8d96:	a1 20 bc 01 00       	mov    0x1bc20,%eax
    8d9b:	8b 90 2c 02 00 00    	mov    0x22c(%eax),%edx
    8da1:	89 90 34 02 00 00    	mov    %edx,0x234(%eax)
    8da7:	89 90 38 02 00 00    	mov    %edx,0x238(%eax)
	current->tty = -1;
    8dad:	a1 20 bc 01 00       	mov    0x1bc20,%eax
    8db2:	c7 80 68 02 00 00 ff 	movl   $0xffffffff,0x268(%eax)
    8db9:	ff ff ff 
	return current->pgrp;
    8dbc:	a1 20 bc 01 00       	mov    0x1bc20,%eax
    8dc1:	8b 80 34 02 00 00    	mov    0x234(%eax),%eax
}
    8dc7:	c3                   	ret    

00008dc8 <sys_uname>:

int sys_uname(struct utsname * name)
{
    8dc8:	53                   	push   %ebx
    8dc9:	83 ec 08             	sub    $0x8,%esp
    8dcc:	8b 5c 24 10          	mov    0x10(%esp),%ebx
	static struct utsname thisname = {
		"linux .0","nodename","release ","version ","machine "
	};
	int i;

	if (!name) return -ERROR;
    8dd0:	b8 9d ff ff ff       	mov    $0xffffff9d,%eax
    8dd5:	85 db                	test   %ebx,%ebx
    8dd7:	74 28                	je     8e01 <sys_uname+0x39>
	verify_area(name,sizeof *name);
    8dd9:	83 ec 08             	sub    $0x8,%esp
    8ddc:	6a 2d                	push   $0x2d
    8dde:	53                   	push   %ebx
    8ddf:	e8 88 f0 ff ff       	call   7e6c <verify_area>
	for(i=0;i<sizeof *name;i++)
    8de4:	ba 00 00 00 00       	mov    $0x0,%edx
    8de9:	83 c4 10             	add    $0x10,%esp
{
    8dec:	8a 82 60 bd 01 00    	mov    0x1bd60(%edx),%al
__asm__ ("movb %0,%%fs:%1"::"r" (val),"m" (*addr));
    8df2:	64 88 04 13          	mov    %al,%fs:(%ebx,%edx,1)
    8df6:	42                   	inc    %edx
    8df7:	83 fa 2c             	cmp    $0x2c,%edx
    8dfa:	76 f0                	jbe    8dec <sys_uname+0x24>
		put_fs_byte(((char *) &thisname)[i],i+(char *) name);
	return 0;
    8dfc:	b8 00 00 00 00       	mov    $0x0,%eax
}
    8e01:	83 c4 08             	add    $0x8,%esp
    8e04:	5b                   	pop    %ebx
    8e05:	c3                   	ret    

00008e06 <sys_umask>:

int sys_umask(int mask)
{
	int old = current->umask;
    8e06:	8b 15 20 bc 01 00    	mov    0x1bc20,%edx
    8e0c:	0f b7 82 6c 02 00 00 	movzwl 0x26c(%edx),%eax

	current->umask = mask & 0777;
    8e13:	8b 4c 24 04          	mov    0x4(%esp),%ecx
    8e17:	81 e1 ff 01 00 00    	and    $0x1ff,%ecx
    8e1d:	66 89 8a 6c 02 00 00 	mov    %cx,0x26c(%edx)
	return (old);
}
    8e24:	c3                   	ret    

00008e25 <release>:

int sys_pause(void);
int sys_close(int fd);

void release(struct task_struct * p)
{
    8e25:	83 ec 0c             	sub    $0xc,%esp
    8e28:	8b 54 24 10          	mov    0x10(%esp),%edx
	int i;

	if (!p)
    8e2c:	85 d2                	test   %edx,%edx
    8e2e:	74 3f                	je     8e6f <release+0x4a>
		return;
	for (i=1 ; i<NR_TASKS ; i++)
    8e30:	b8 01 00 00 00       	mov    $0x1,%eax
    8e35:	b9 40 bc 01 00       	mov    $0x1bc40,%ecx
		if (task[i]==p) {
    8e3a:	39 14 81             	cmp    %edx,(%ecx,%eax,4)
    8e3d:	75 1a                	jne    8e59 <release+0x34>
			task[i]=NULL;
    8e3f:	c7 04 81 00 00 00 00 	movl   $0x0,(%ecx,%eax,4)
			free_page((long)p);
    8e46:	83 ec 0c             	sub    $0xc,%esp
    8e49:	52                   	push   %edx
    8e4a:	e8 56 0b 00 00       	call   99a5 <free_page>
			schedule();
    8e4f:	e8 27 dc ff ff       	call   6a7b <schedule>
			return;
    8e54:	83 c4 10             	add    $0x10,%esp
    8e57:	eb 16                	jmp    8e6f <release+0x4a>
	for (i=1 ; i<NR_TASKS ; i++)
    8e59:	40                   	inc    %eax
    8e5a:	83 f8 3f             	cmp    $0x3f,%eax
    8e5d:	7e db                	jle    8e3a <release+0x15>
		}
	panic("trying to release non-existent task");
    8e5f:	83 ec 0c             	sub    $0xc,%esp
    8e62:	68 50 8b 01 00       	push   $0x18b50
    8e67:	e8 ad f4 ff ff       	call   8319 <panic>
    8e6c:	83 c4 10             	add    $0x10,%esp
}
    8e6f:	83 c4 0c             	add    $0xc,%esp
    8e72:	c3                   	ret    

00008e73 <sys_kill>:
/*
 * XXX need to check permissions needed to send signals to process
 * groups, etc. etc.  kill() permissions semantics are tricky!
 */
int sys_kill(int pid,int sig)
{
    8e73:	55                   	push   %ebp
    8e74:	57                   	push   %edi
    8e75:	56                   	push   %esi
    8e76:	53                   	push   %ebx
    8e77:	83 ec 04             	sub    $0x4,%esp
    8e7a:	8b 74 24 18          	mov    0x18(%esp),%esi
    8e7e:	8b 7c 24 1c          	mov    0x1c(%esp),%edi
	struct task_struct **p = NR_TASKS + task;
    8e82:	bb 40 bd 01 00       	mov    $0x1bd40,%ebx
	int err, retval = 0;
    8e87:	c7 04 24 00 00 00 00 	movl   $0x0,(%esp)

	if (!pid) while (--p > &FIRST_TASK) {
    8e8e:	85 f6                	test   %esi,%esi
    8e90:	0f 85 9e 00 00 00    	jne    8f34 <sys_kill+0xc1>
		if (*p && (*p)->pgrp == current->pid) 
			if ((err=send_sig(sig,*p,1)))
				retval = err;
    8e96:	bb 3c bd 01 00       	mov    $0x1bd3c,%ebx
    8e9b:	81 fb 40 bc 01 00    	cmp    $0x1bc40,%ebx
    8ea1:	0f 86 29 02 00 00    	jbe    90d0 <sys_kill+0x25d>
		if (*p && (*p)->pgrp == current->pid) 
    8ea7:	83 3b 00             	cmpl   $0x0,(%ebx)
    8eaa:	74 74                	je     8f20 <sys_kill+0xad>
    8eac:	8b 0b                	mov    (%ebx),%ecx
    8eae:	8b 91 34 02 00 00    	mov    0x234(%ecx),%edx
    8eb4:	a1 20 bc 01 00       	mov    0x1bc20,%eax
    8eb9:	3b 90 2c 02 00 00    	cmp    0x22c(%eax),%edx
    8ebf:	75 5f                	jne    8f20 <sys_kill+0xad>
{
    8ec1:	89 fd                	mov    %edi,%ebp
    8ec3:	89 ca                	mov    %ecx,%edx
	if (!p || sig<1 || sig>32)
    8ec5:	85 c9                	test   %ecx,%ecx
    8ec7:	74 09                	je     8ed2 <sys_kill+0x5f>
    8ec9:	85 ff                	test   %edi,%edi
    8ecb:	7e 05                	jle    8ed2 <sys_kill+0x5f>
    8ecd:	83 ff 20             	cmp    $0x20,%edi
    8ed0:	7e 07                	jle    8ed9 <sys_kill+0x66>
    8ed2:	b8 ea ff ff ff       	mov    $0xffffffea,%eax
    8ed7:	eb 40                	jmp    8f19 <sys_kill+0xa6>
	if (priv || (current->euid==p->euid) || suser())
    8ed9:	b8 01 00 00 00       	mov    $0x1,%eax
    8ede:	85 c0                	test   %eax,%eax
    8ee0:	75 25                	jne    8f07 <sys_kill+0x94>
    8ee2:	8b 35 20 bc 01 00    	mov    0x1bc20,%esi
    8ee8:	66 8b 86 42 02 00 00 	mov    0x242(%esi),%ax
    8eef:	66 3b 81 42 02 00 00 	cmp    0x242(%ecx),%ax
    8ef6:	74 0f                	je     8f07 <sys_kill+0x94>
		p->signal |= (1<<(sig-1));
    8ef8:	b8 ff ff ff ff       	mov    $0xffffffff,%eax
	if (priv || (current->euid==p->euid) || suser())
    8efd:	66 83 be 42 02 00 00 	cmpw   $0x0,0x242(%esi)
    8f04:	00 
    8f05:	75 12                	jne    8f19 <sys_kill+0xa6>
		p->signal |= (1<<(sig-1));
    8f07:	8d 4d ff             	lea    -0x1(%ebp),%ecx
    8f0a:	b8 01 00 00 00       	mov    $0x1,%eax
    8f0f:	d3 e0                	shl    %cl,%eax
    8f11:	09 42 0c             	or     %eax,0xc(%edx)
    8f14:	b8 00 00 00 00       	mov    $0x0,%eax
{
    8f19:	85 c0                	test   %eax,%eax
    8f1b:	74 03                	je     8f20 <sys_kill+0xad>
				retval = err;
    8f1d:	89 04 24             	mov    %eax,(%esp)
    8f20:	83 eb 04             	sub    $0x4,%ebx
    8f23:	81 fb 40 bc 01 00    	cmp    $0x1bc40,%ebx
    8f29:	0f 87 78 ff ff ff    	ja     8ea7 <sys_kill+0x34>
    8f2f:	e9 9c 01 00 00       	jmp    90d0 <sys_kill+0x25d>
	} else if (pid>0) while (--p > &FIRST_TASK) {
    8f34:	85 f6                	test   %esi,%esi
    8f36:	0f 8e 8b 00 00 00    	jle    8fc7 <sys_kill+0x154>
		if (*p && (*p)->pid == pid) 
			if ((err=send_sig(sig,*p,0)))
				retval = err;
    8f3c:	83 eb 04             	sub    $0x4,%ebx
    8f3f:	81 fb 40 bc 01 00    	cmp    $0x1bc40,%ebx
    8f45:	0f 86 85 01 00 00    	jbe    90d0 <sys_kill+0x25d>
		if (*p && (*p)->pid == pid) 
    8f4b:	83 3b 00             	cmpl   $0x0,(%ebx)
    8f4e:	74 67                	je     8fb7 <sys_kill+0x144>
    8f50:	8b 03                	mov    (%ebx),%eax
    8f52:	39 b0 2c 02 00 00    	cmp    %esi,0x22c(%eax)
    8f58:	75 5d                	jne    8fb7 <sys_kill+0x144>
{
    8f5a:	89 f9                	mov    %edi,%ecx
    8f5c:	89 c2                	mov    %eax,%edx
	if (!p || sig<1 || sig>32)
    8f5e:	85 c0                	test   %eax,%eax
    8f60:	74 09                	je     8f6b <sys_kill+0xf8>
    8f62:	85 ff                	test   %edi,%edi
    8f64:	7e 05                	jle    8f6b <sys_kill+0xf8>
    8f66:	83 ff 20             	cmp    $0x20,%edi
    8f69:	7e 07                	jle    8f72 <sys_kill+0xff>
    8f6b:	b8 ea ff ff ff       	mov    $0xffffffea,%eax
    8f70:	eb 3e                	jmp    8fb0 <sys_kill+0x13d>
	if (priv || (current->euid==p->euid) || suser())
    8f72:	b8 00 00 00 00       	mov    $0x0,%eax
    8f77:	85 c0                	test   %eax,%eax
    8f79:	75 25                	jne    8fa0 <sys_kill+0x12d>
    8f7b:	8b 2d 20 bc 01 00    	mov    0x1bc20,%ebp
    8f81:	66 8b 85 42 02 00 00 	mov    0x242(%ebp),%ax
    8f88:	66 3b 82 42 02 00 00 	cmp    0x242(%edx),%ax
    8f8f:	74 0f                	je     8fa0 <sys_kill+0x12d>
		p->signal |= (1<<(sig-1));
    8f91:	b8 ff ff ff ff       	mov    $0xffffffff,%eax
	if (priv || (current->euid==p->euid) || suser())
    8f96:	66 83 bd 42 02 00 00 	cmpw   $0x0,0x242(%ebp)
    8f9d:	00 
    8f9e:	75 10                	jne    8fb0 <sys_kill+0x13d>
		p->signal |= (1<<(sig-1));
    8fa0:	49                   	dec    %ecx
    8fa1:	b8 01 00 00 00       	mov    $0x1,%eax
    8fa6:	d3 e0                	shl    %cl,%eax
    8fa8:	09 42 0c             	or     %eax,0xc(%edx)
    8fab:	b8 00 00 00 00       	mov    $0x0,%eax
{
    8fb0:	85 c0                	test   %eax,%eax
    8fb2:	74 03                	je     8fb7 <sys_kill+0x144>
				retval = err;
    8fb4:	89 04 24             	mov    %eax,(%esp)
    8fb7:	83 eb 04             	sub    $0x4,%ebx
    8fba:	81 fb 40 bc 01 00    	cmp    $0x1bc40,%ebx
    8fc0:	77 89                	ja     8f4b <sys_kill+0xd8>
    8fc2:	e9 09 01 00 00       	jmp    90d0 <sys_kill+0x25d>
	} else if (pid == -1) while (--p > &FIRST_TASK) {
    8fc7:	83 fe ff             	cmp    $0xffffffff,%esi
    8fca:	75 7e                	jne    904a <sys_kill+0x1d7>
		if ((err = send_sig(sig,*p,0)))
			retval = err;
    8fcc:	83 eb 04             	sub    $0x4,%ebx
    8fcf:	81 fb 40 bc 01 00    	cmp    $0x1bc40,%ebx
    8fd5:	0f 86 f5 00 00 00    	jbe    90d0 <sys_kill+0x25d>
    8fdb:	bd 00 00 00 00       	mov    $0x0,%ebp
    8fe0:	8d 4f ff             	lea    -0x1(%edi),%ecx
    8fe3:	b8 01 00 00 00       	mov    $0x1,%eax
    8fe8:	89 c6                	mov    %eax,%esi
    8fea:	d3 e6                	shl    %cl,%esi
{
    8fec:	8b 13                	mov    (%ebx),%edx
	if (!p || sig<1 || sig>32)
    8fee:	85 d2                	test   %edx,%edx
    8ff0:	74 09                	je     8ffb <sys_kill+0x188>
    8ff2:	85 ff                	test   %edi,%edi
    8ff4:	7e 05                	jle    8ffb <sys_kill+0x188>
    8ff6:	83 ff 20             	cmp    $0x20,%edi
    8ff9:	7e 07                	jle    9002 <sys_kill+0x18f>
    8ffb:	b8 ea ff ff ff       	mov    $0xffffffea,%eax
    9000:	eb 31                	jmp    9033 <sys_kill+0x1c0>
	if (priv || (current->euid==p->euid) || suser())
    9002:	85 ed                	test   %ebp,%ebp
    9004:	75 25                	jne    902b <sys_kill+0x1b8>
    9006:	8b 0d 20 bc 01 00    	mov    0x1bc20,%ecx
    900c:	66 8b 81 42 02 00 00 	mov    0x242(%ecx),%ax
    9013:	66 3b 82 42 02 00 00 	cmp    0x242(%edx),%ax
    901a:	74 0f                	je     902b <sys_kill+0x1b8>
		p->signal |= (1<<(sig-1));
    901c:	b8 ff ff ff ff       	mov    $0xffffffff,%eax
	if (priv || (current->euid==p->euid) || suser())
    9021:	66 83 b9 42 02 00 00 	cmpw   $0x0,0x242(%ecx)
    9028:	00 
    9029:	75 08                	jne    9033 <sys_kill+0x1c0>
		p->signal |= (1<<(sig-1));
    902b:	09 72 0c             	or     %esi,0xc(%edx)
    902e:	b8 00 00 00 00       	mov    $0x0,%eax
{
    9033:	85 c0                	test   %eax,%eax
    9035:	74 03                	je     903a <sys_kill+0x1c7>
			retval = err;
    9037:	89 04 24             	mov    %eax,(%esp)
    903a:	83 eb 04             	sub    $0x4,%ebx
    903d:	81 fb 40 bc 01 00    	cmp    $0x1bc40,%ebx
    9043:	77 a7                	ja     8fec <sys_kill+0x179>
    9045:	e9 86 00 00 00       	jmp    90d0 <sys_kill+0x25d>
	} else while (--p > &FIRST_TASK)
		if (*p && (*p)->pgrp == -pid)
			if ((err = send_sig(sig,*p,0)))
				retval = err;
    904a:	83 eb 04             	sub    $0x4,%ebx
    904d:	81 fb 40 bc 01 00    	cmp    $0x1bc40,%ebx
    9053:	76 7b                	jbe    90d0 <sys_kill+0x25d>
		if (*p && (*p)->pgrp == -pid)
    9055:	83 3b 00             	cmpl   $0x0,(%ebx)
    9058:	74 6b                	je     90c5 <sys_kill+0x252>
    905a:	8b 03                	mov    (%ebx),%eax
    905c:	8b 90 34 02 00 00    	mov    0x234(%eax),%edx
    9062:	01 f2                	add    %esi,%edx
    9064:	75 5f                	jne    90c5 <sys_kill+0x252>
{
    9066:	89 fa                	mov    %edi,%edx
    9068:	89 c5                	mov    %eax,%ebp
	if (!p || sig<1 || sig>32)
    906a:	85 c0                	test   %eax,%eax
    906c:	74 09                	je     9077 <sys_kill+0x204>
    906e:	85 ff                	test   %edi,%edi
    9070:	7e 05                	jle    9077 <sys_kill+0x204>
    9072:	83 ff 20             	cmp    $0x20,%edi
    9075:	7e 07                	jle    907e <sys_kill+0x20b>
    9077:	b8 ea ff ff ff       	mov    $0xffffffea,%eax
    907c:	eb 40                	jmp    90be <sys_kill+0x24b>
	if (priv || (current->euid==p->euid) || suser())
    907e:	b8 00 00 00 00       	mov    $0x0,%eax
    9083:	85 c0                	test   %eax,%eax
    9085:	75 25                	jne    90ac <sys_kill+0x239>
    9087:	8b 0d 20 bc 01 00    	mov    0x1bc20,%ecx
    908d:	66 8b 81 42 02 00 00 	mov    0x242(%ecx),%ax
    9094:	66 3b 85 42 02 00 00 	cmp    0x242(%ebp),%ax
    909b:	74 0f                	je     90ac <sys_kill+0x239>
		p->signal |= (1<<(sig-1));
    909d:	b8 ff ff ff ff       	mov    $0xffffffff,%eax
	if (priv || (current->euid==p->euid) || suser())
    90a2:	66 83 b9 42 02 00 00 	cmpw   $0x0,0x242(%ecx)
    90a9:	00 
    90aa:	75 12                	jne    90be <sys_kill+0x24b>
		p->signal |= (1<<(sig-1));
    90ac:	8d 4a ff             	lea    -0x1(%edx),%ecx
    90af:	b8 01 00 00 00       	mov    $0x1,%eax
    90b4:	d3 e0                	shl    %cl,%eax
    90b6:	09 45 0c             	or     %eax,0xc(%ebp)
    90b9:	b8 00 00 00 00       	mov    $0x0,%eax
{
    90be:	85 c0                	test   %eax,%eax
    90c0:	74 03                	je     90c5 <sys_kill+0x252>
				retval = err;
    90c2:	89 04 24             	mov    %eax,(%esp)
    90c5:	83 eb 04             	sub    $0x4,%ebx
    90c8:	81 fb 40 bc 01 00    	cmp    $0x1bc40,%ebx
    90ce:	77 85                	ja     9055 <sys_kill+0x1e2>
	return retval;
}
    90d0:	8b 04 24             	mov    (%esp),%eax
    90d3:	83 c4 04             	add    $0x4,%esp
    90d6:	5b                   	pop    %ebx
    90d7:	5e                   	pop    %esi
    90d8:	5f                   	pop    %edi
    90d9:	5d                   	pop    %ebp
    90da:	c3                   	ret    

000090db <do_exit>:
	printk("BAD BAD - no father found\n\r");
	release(current);
}

int do_exit(long code)
{
    90db:	57                   	push   %edi
    90dc:	56                   	push   %esi
    90dd:	53                   	push   %ebx
	int i;
	free_page_tables(get_base(current->ldt[1]),get_limit(0x0f));
    90de:	ba 0f 00 00 00       	mov    $0xf,%edx
    90e3:	0f 03 ca             	lsl    %dx,%ecx
    90e6:	41                   	inc    %ecx
    90e7:	a1 20 bc 01 00       	mov    0x1bc20,%eax
    90ec:	05 d8 02 00 00       	add    $0x2d8,%eax
         __asm__("movb %3,%%dh\n\t"
    90f1:	8a 70 07             	mov    0x7(%eax),%dh
    90f4:	8a 50 04             	mov    0x4(%eax),%dl
    90f7:	c1 e2 10             	shl    $0x10,%edx
    90fa:	66 8b 50 02          	mov    0x2(%eax),%dx
{
    90fe:	83 ec 08             	sub    $0x8,%esp
    9101:	51                   	push   %ecx
    9102:	52                   	push   %edx
    9103:	e8 f9 08 00 00       	call   9a01 <free_page_tables>
	free_page_tables(get_base(current->ldt[2]),get_limit(0x17));
    9108:	83 c4 08             	add    $0x8,%esp
    910b:	ba 17 00 00 00       	mov    $0x17,%edx
    9110:	0f 03 ca             	lsl    %dx,%ecx
    9113:	41                   	inc    %ecx
    9114:	a1 20 bc 01 00       	mov    0x1bc20,%eax
    9119:	05 e0 02 00 00       	add    $0x2e0,%eax
         __asm__("movb %3,%%dh\n\t"
    911e:	8a 70 07             	mov    0x7(%eax),%dh
    9121:	8a 50 04             	mov    0x4(%eax),%dl
    9124:	c1 e2 10             	shl    $0x10,%edx
    9127:	66 8b 50 02          	mov    0x2(%eax),%dx
{
    912b:	51                   	push   %ecx
    912c:	52                   	push   %edx
    912d:	e8 cf 08 00 00       	call   9a01 <free_page_tables>
	for (i=0 ; i<NR_TASKS ; i++)
    9132:	bb 00 00 00 00       	mov    $0x0,%ebx
    9137:	83 c4 10             	add    $0x10,%esp
    913a:	be 40 bc 01 00       	mov    $0x1bc40,%esi
    913f:	bf 01 00 00 00       	mov    $0x1,%edi
		if (task[i] && task[i]->father == current->pid) {
    9144:	83 3c 9e 00          	cmpl   $0x0,(%esi,%ebx,4)
    9148:	74 3e                	je     9188 <do_exit+0xad>
    914a:	8b 0c 9e             	mov    (%esi,%ebx,4),%ecx
    914d:	8b 91 30 02 00 00    	mov    0x230(%ecx),%edx
    9153:	a1 20 bc 01 00       	mov    0x1bc20,%eax
    9158:	3b 90 2c 02 00 00    	cmp    0x22c(%eax),%edx
    915e:	75 28                	jne    9188 <do_exit+0xad>
			task[i]->father = 1;
    9160:	c7 81 30 02 00 00 01 	movl   $0x1,0x230(%ecx)
    9167:	00 00 00 
			if (task[i]->state == TASK_ZOMBIE)
    916a:	8b 04 9e             	mov    (%esi,%ebx,4),%eax
    916d:	83 38 03             	cmpl   $0x3,(%eax)
    9170:	75 16                	jne    9188 <do_exit+0xad>
{
    9172:	a1 44 bc 01 00       	mov    0x1bc44,%eax
	if (!p || sig<1 || sig>32)
    9177:	85 c0                	test   %eax,%eax
    9179:	74 0d                	je     9188 <do_exit+0xad>
		p->signal |= (1<<(sig-1));
    917b:	b9 11 00 00 00       	mov    $0x11,%ecx
    9180:	49                   	dec    %ecx
    9181:	89 fa                	mov    %edi,%edx
    9183:	d3 e2                	shl    %cl,%edx
    9185:	09 50 0c             	or     %edx,0xc(%eax)
	for (i=0 ; i<NR_TASKS ; i++)
    9188:	43                   	inc    %ebx
    9189:	83 fb 3f             	cmp    $0x3f,%ebx
    918c:	7e b6                	jle    9144 <do_exit+0x69>
				/* assumption task[1] is always init */
				(void) send_sig(SIGCHLD, task[1], 1);
		}
	for (i=0 ; i<NR_OPEN ; i++)
    918e:	bb 00 00 00 00       	mov    $0x0,%ebx
		if (current->filp[i])
    9193:	a1 20 bc 01 00       	mov    0x1bc20,%eax
    9198:	83 bc 98 80 02 00 00 	cmpl   $0x0,0x280(%eax,%ebx,4)
    919f:	00 
    91a0:	74 0c                	je     91ae <do_exit+0xd3>
			sys_close(i);
    91a2:	83 ec 0c             	sub    $0xc,%esp
    91a5:	53                   	push   %ebx
    91a6:	e8 0c 1c 00 00       	call   adb7 <sys_close>
    91ab:	83 c4 10             	add    $0x10,%esp
	for (i=0 ; i<NR_OPEN ; i++)
    91ae:	43                   	inc    %ebx
    91af:	83 fb 13             	cmp    $0x13,%ebx
    91b2:	7e df                	jle    9193 <do_exit+0xb8>
	iput(current->pwd);
    91b4:	83 ec 0c             	sub    $0xc,%esp
    91b7:	a1 20 bc 01 00       	mov    0x1bc20,%eax
    91bc:	ff b0 70 02 00 00    	pushl  0x270(%eax)
    91c2:	e8 86 26 00 00       	call   b84d <iput>
	current->pwd=NULL;
    91c7:	a1 20 bc 01 00       	mov    0x1bc20,%eax
    91cc:	c7 80 70 02 00 00 00 	movl   $0x0,0x270(%eax)
    91d3:	00 00 00 
	iput(current->root);
    91d6:	83 c4 04             	add    $0x4,%esp
    91d9:	a1 20 bc 01 00       	mov    0x1bc20,%eax
    91de:	ff b0 74 02 00 00    	pushl  0x274(%eax)
    91e4:	e8 64 26 00 00       	call   b84d <iput>
	current->root=NULL;
    91e9:	a1 20 bc 01 00       	mov    0x1bc20,%eax
    91ee:	c7 80 74 02 00 00 00 	movl   $0x0,0x274(%eax)
    91f5:	00 00 00 
	iput(current->executable);
    91f8:	83 c4 04             	add    $0x4,%esp
    91fb:	a1 20 bc 01 00       	mov    0x1bc20,%eax
    9200:	ff b0 78 02 00 00    	pushl  0x278(%eax)
    9206:	e8 42 26 00 00       	call   b84d <iput>
	current->executable=NULL;
    920b:	a1 20 bc 01 00       	mov    0x1bc20,%eax
    9210:	c7 80 78 02 00 00 00 	movl   $0x0,0x278(%eax)
    9217:	00 00 00 
	if (current->leader && current->tty >= 0)
    921a:	a1 20 bc 01 00       	mov    0x1bc20,%eax
    921f:	83 c4 10             	add    $0x10,%esp
    9222:	83 b8 3c 02 00 00 00 	cmpl   $0x0,0x23c(%eax)
    9229:	74 27                	je     9252 <do_exit+0x177>
    922b:	83 b8 68 02 00 00 00 	cmpl   $0x0,0x268(%eax)
    9232:	78 1e                	js     9252 <do_exit+0x177>
		tty_table[current->tty].pgrp = 0;
    9234:	8b 90 68 02 00 00    	mov    0x268(%eax),%edx
    923a:	8d 04 92             	lea    (%edx,%edx,4),%eax
    923d:	8d 04 80             	lea    (%eax,%eax,4),%eax
    9240:	c1 e0 02             	shl    $0x2,%eax
    9243:	29 d0                	sub    %edx,%eax
    9245:	c1 e0 05             	shl    $0x5,%eax
    9248:	c7 80 44 bf 01 00 00 	movl   $0x0,0x1bf44(%eax)
    924f:	00 00 00 
	if (last_task_used_math == current)
    9252:	a1 c8 e9 01 00       	mov    0x1e9c8,%eax
    9257:	3b 05 20 bc 01 00    	cmp    0x1bc20,%eax
    925d:	75 0a                	jne    9269 <do_exit+0x18e>
		last_task_used_math = NULL;
    925f:	c7 05 c8 e9 01 00 00 	movl   $0x0,0x1e9c8
    9266:	00 00 00 
	if (current->leader)
    9269:	a1 20 bc 01 00       	mov    0x1bc20,%eax
    926e:	83 b8 3c 02 00 00 00 	cmpl   $0x0,0x23c(%eax)
    9275:	74 36                	je     92ad <do_exit+0x1d2>
			(*p)->signal |= 1<<(SIGHUP-1);
    9277:	bb 3c bd 01 00       	mov    $0x1bd3c,%ebx
    927c:	81 fb 40 bc 01 00    	cmp    $0x1bc40,%ebx
    9282:	76 29                	jbe    92ad <do_exit+0x1d2>
		if (*p && (*p)->session == current->session)
    9284:	83 3b 00             	cmpl   $0x0,(%ebx)
    9287:	74 19                	je     92a2 <do_exit+0x1c7>
    9289:	8b 0b                	mov    (%ebx),%ecx
    928b:	8b 91 38 02 00 00    	mov    0x238(%ecx),%edx
    9291:	a1 20 bc 01 00       	mov    0x1bc20,%eax
    9296:	3b 90 38 02 00 00    	cmp    0x238(%eax),%edx
    929c:	75 04                	jne    92a2 <do_exit+0x1c7>
			(*p)->signal |= 1<<(SIGHUP-1);
    929e:	83 49 0c 01          	orl    $0x1,0xc(%ecx)
    92a2:	83 eb 04             	sub    $0x4,%ebx
    92a5:	81 fb 40 bc 01 00    	cmp    $0x1bc40,%ebx
    92ab:	77 d7                	ja     9284 <do_exit+0x1a9>
		kill_session();
	current->state = TASK_ZOMBIE;
    92ad:	a1 20 bc 01 00       	mov    0x1bc20,%eax
    92b2:	c7 00 03 00 00 00    	movl   $0x3,(%eax)
	current->exit_code = code;
    92b8:	8b 54 24 10          	mov    0x10(%esp),%edx
    92bc:	a1 20 bc 01 00       	mov    0x1bc20,%eax
    92c1:	89 90 14 02 00 00    	mov    %edx,0x214(%eax)
{
    92c7:	a1 20 bc 01 00       	mov    0x1bc20,%eax
    92cc:	8b 98 30 02 00 00    	mov    0x230(%eax),%ebx
	if (pid)
    92d2:	85 db                	test   %ebx,%ebx
    92d4:	74 2a                	je     9300 <do_exit+0x225>
		for (i=0;i<NR_TASKS;i++) {
    92d6:	ba 00 00 00 00       	mov    $0x0,%edx
    92db:	b9 40 bc 01 00       	mov    $0x1bc40,%ecx
			if (!task[i])
    92e0:	83 3c 91 00          	cmpl   $0x0,(%ecx,%edx,4)
    92e4:	74 14                	je     92fa <do_exit+0x21f>
			if (task[i]->pid != pid)
    92e6:	8b 04 91             	mov    (%ecx,%edx,4),%eax
    92e9:	39 98 2c 02 00 00    	cmp    %ebx,0x22c(%eax)
    92ef:	75 09                	jne    92fa <do_exit+0x21f>
			task[i]->signal |= (1<<(SIGCHLD-1));
    92f1:	81 48 0c 00 00 01 00 	orl    $0x10000,0xc(%eax)
    92f8:	eb 5f                	jmp    9359 <do_exit+0x27e>
		for (i=0;i<NR_TASKS;i++) {
    92fa:	42                   	inc    %edx
    92fb:	83 fa 3f             	cmp    $0x3f,%edx
    92fe:	7e e0                	jle    92e0 <do_exit+0x205>
	printk("BAD BAD - no father found\n\r");
    9300:	83 ec 0c             	sub    $0xc,%esp
    9303:	68 92 89 01 00       	push   $0x18992
    9308:	e8 46 f0 ff ff       	call   8353 <printk>
    930d:	83 c4 10             	add    $0x10,%esp
{
    9310:	8b 15 20 bc 01 00    	mov    0x1bc20,%edx
	if (!p)
    9316:	85 d2                	test   %edx,%edx
    9318:	74 3f                	je     9359 <do_exit+0x27e>
	for (i=1 ; i<NR_TASKS ; i++)
    931a:	b8 01 00 00 00       	mov    $0x1,%eax
    931f:	b9 40 bc 01 00       	mov    $0x1bc40,%ecx
		if (task[i]==p) {
    9324:	39 14 81             	cmp    %edx,(%ecx,%eax,4)
    9327:	75 1a                	jne    9343 <do_exit+0x268>
			task[i]=NULL;
    9329:	c7 04 81 00 00 00 00 	movl   $0x0,(%ecx,%eax,4)
			free_page((long)p);
    9330:	83 ec 0c             	sub    $0xc,%esp
    9333:	52                   	push   %edx
    9334:	e8 6c 06 00 00       	call   99a5 <free_page>
    9339:	83 c4 10             	add    $0x10,%esp
			schedule();
    933c:	e8 3a d7 ff ff       	call   6a7b <schedule>
    9341:	eb 16                	jmp    9359 <do_exit+0x27e>
	for (i=1 ; i<NR_TASKS ; i++)
    9343:	40                   	inc    %eax
    9344:	83 f8 3f             	cmp    $0x3f,%eax
    9347:	7e db                	jle    9324 <do_exit+0x249>
	panic("trying to release non-existent task");
    9349:	83 ec 0c             	sub    $0xc,%esp
    934c:	68 50 8b 01 00       	push   $0x18b50
    9351:	e8 c3 ef ff ff       	call   8319 <panic>
    9356:	83 c4 10             	add    $0x10,%esp
	tell_father(current->father);
	
	fprintk(3, "%ld\t%c\t%ld\n", current->pid, 'E', jiffies);
    9359:	83 ec 0c             	sub    $0xc,%esp
    935c:	a1 c0 e9 01 00       	mov    0x1e9c0,%eax
    9361:	50                   	push   %eax
    9362:	6a 45                	push   $0x45
    9364:	a1 20 bc 01 00       	mov    0x1bc20,%eax
    9369:	ff b0 2c 02 00 00    	pushl  0x22c(%eax)
    936f:	68 cb 87 01 00       	push   $0x187cb
    9374:	6a 03                	push   $0x3
    9376:	e8 13 f0 ff ff       	call   838e <fprintk>
	schedule();
    937b:	83 c4 20             	add    $0x20,%esp
    937e:	e8 f8 d6 ff ff       	call   6a7b <schedule>
	fprintk(3, "%ld\t%c\t%ld\n", current->pid, 'R', jiffies);
    9383:	83 ec 0c             	sub    $0xc,%esp
    9386:	a1 c0 e9 01 00       	mov    0x1e9c0,%eax
    938b:	50                   	push   %eax
    938c:	6a 52                	push   $0x52
    938e:	a1 20 bc 01 00       	mov    0x1bc20,%eax
    9393:	ff b0 2c 02 00 00    	pushl  0x22c(%eax)
    9399:	68 cb 87 01 00       	push   $0x187cb
    939e:	6a 03                	push   $0x3
    93a0:	e8 e9 ef ff ff       	call   838e <fprintk>
	return (-1);	/* just to suppress warnings */
    93a5:	83 c4 20             	add    $0x20,%esp
}
    93a8:	b8 ff ff ff ff       	mov    $0xffffffff,%eax
    93ad:	5b                   	pop    %ebx
    93ae:	5e                   	pop    %esi
    93af:	5f                   	pop    %edi
    93b0:	c3                   	ret    

000093b1 <sys_exit>:

int sys_exit(int error_code)
{
    93b1:	83 ec 18             	sub    $0x18,%esp
	
	return do_exit((error_code&0xff)<<8);
    93b4:	0f b6 44 24 1c       	movzbl 0x1c(%esp),%eax
    93b9:	c1 e0 08             	shl    $0x8,%eax
    93bc:	50                   	push   %eax
    93bd:	e8 19 fd ff ff       	call   90db <do_exit>
}
    93c2:	83 c4 1c             	add    $0x1c,%esp
    93c5:	c3                   	ret    

000093c6 <sys_waitpid>:

int sys_waitpid(pid_t pid,unsigned long * stat_addr, int options)
{
    93c6:	55                   	push   %ebp
    93c7:	57                   	push   %edi
    93c8:	56                   	push   %esi
    93c9:	53                   	push   %ebx
    93ca:	83 ec 14             	sub    $0x14,%esp
    93cd:	8b 7c 24 28          	mov    0x28(%esp),%edi
    93d1:	8b 6c 24 30          	mov    0x30(%esp),%ebp
	int flag, code;
	struct task_struct ** p;

	verify_area(stat_addr,4);
    93d5:	6a 04                	push   $0x4
    93d7:	ff 74 24 30          	pushl  0x30(%esp)
    93db:	e8 8c ea ff ff       	call   7e6c <verify_area>
    93e0:	83 c4 10             	add    $0x10,%esp
repeat:
	flag=0;
    93e3:	be 00 00 00 00       	mov    $0x0,%esi
	for(p = &LAST_TASK ; p > &FIRST_TASK ; --p) {
    93e8:	bb 3c bd 01 00       	mov    $0x1bd3c,%ebx
    93ed:	81 fb 40 bc 01 00    	cmp    $0x1bc40,%ebx
    93f3:	0f 86 4d 01 00 00    	jbe    9546 <sys_waitpid+0x180>
		if (!*p || *p == current)
    93f9:	83 3b 00             	cmpl   $0x0,(%ebx)
    93fc:	0f 84 35 01 00 00    	je     9537 <sys_waitpid+0x171>
    9402:	8b 0b                	mov    (%ebx),%ecx
    9404:	3b 0d 20 bc 01 00    	cmp    0x1bc20,%ecx
    940a:	0f 84 27 01 00 00    	je     9537 <sys_waitpid+0x171>
			continue;
		if ((*p)->father != current->pid)
    9410:	8b 91 30 02 00 00    	mov    0x230(%ecx),%edx
    9416:	a1 20 bc 01 00       	mov    0x1bc20,%eax
    941b:	3b 90 2c 02 00 00    	cmp    0x22c(%eax),%edx
    9421:	0f 85 10 01 00 00    	jne    9537 <sys_waitpid+0x171>
			continue;
		if (pid>0) {
    9427:	85 ff                	test   %edi,%edi
    9429:	7e 0e                	jle    9439 <sys_waitpid+0x73>
			if ((*p)->pid != pid)
    942b:	39 b9 2c 02 00 00    	cmp    %edi,0x22c(%ecx)
    9431:	0f 85 00 01 00 00    	jne    9537 <sys_waitpid+0x171>
				continue;
    9437:	eb 34                	jmp    946d <sys_waitpid+0xa7>
		} else if (!pid) {
    9439:	85 ff                	test   %edi,%edi
    943b:	75 1b                	jne    9458 <sys_waitpid+0x92>
			if ((*p)->pgrp != current->pgrp)
    943d:	8b 03                	mov    (%ebx),%eax
    943f:	8b 90 34 02 00 00    	mov    0x234(%eax),%edx
    9445:	a1 20 bc 01 00       	mov    0x1bc20,%eax
    944a:	3b 90 34 02 00 00    	cmp    0x234(%eax),%edx
    9450:	0f 85 e1 00 00 00    	jne    9537 <sys_waitpid+0x171>
				continue;
    9456:	eb 15                	jmp    946d <sys_waitpid+0xa7>
		} else if (pid != -1) {
    9458:	83 ff ff             	cmp    $0xffffffff,%edi
    945b:	74 10                	je     946d <sys_waitpid+0xa7>
			if ((*p)->pgrp != -pid)
    945d:	8b 03                	mov    (%ebx),%eax
    945f:	8b 80 34 02 00 00    	mov    0x234(%eax),%eax
    9465:	01 f8                	add    %edi,%eax
    9467:	0f 85 ca 00 00 00    	jne    9537 <sys_waitpid+0x171>
				continue;
		}
		switch ((*p)->state) {
    946d:	8b 13                	mov    (%ebx),%edx
    946f:	8b 02                	mov    (%edx),%eax
    9471:	83 f8 03             	cmp    $0x3,%eax
    9474:	74 43                	je     94b9 <sys_waitpid+0xf3>
    9476:	83 f8 04             	cmp    $0x4,%eax
    9479:	0f 85 b3 00 00 00    	jne    9532 <sys_waitpid+0x16c>
			case TASK_STOPPED:
				if (!(options & WUNTRACED))
    947f:	f7 c5 02 00 00 00    	test   $0x2,%ebp
    9485:	0f 84 ac 00 00 00    	je     9537 <sys_waitpid+0x171>
{
    948b:	b0 7f                	mov    $0x7f,%al
__asm__ ("movl %0,%%fs:%1"::"r" (val),"m" (*addr));
    948d:	8b 4c 24 24          	mov    0x24(%esp),%ecx
    9491:	64 89 01             	mov    %eax,%fs:(%ecx)
					continue;
				put_fs_long(0x7f,stat_addr);
				return (*p)->pid;
    9494:	8b 82 2c 02 00 00    	mov    0x22c(%edx),%eax
    949a:	e9 3d 01 00 00       	jmp    95dc <sys_waitpid+0x216>
			task[i]=NULL;
    949f:	c7 04 8a 00 00 00 00 	movl   $0x0,(%edx,%ecx,4)
			free_page((long)p);
    94a6:	83 ec 0c             	sub    $0xc,%esp
    94a9:	50                   	push   %eax
    94aa:	e8 f6 04 00 00       	call   99a5 <free_page>
    94af:	83 c4 10             	add    $0x10,%esp
			schedule();
    94b2:	e8 c4 d5 ff ff       	call   6a7b <schedule>
    94b7:	eb 6b                	jmp    9524 <sys_waitpid+0x15e>
			case TASK_ZOMBIE:
				current->cutime += (*p)->utime;
    94b9:	8b 0d 20 bc 01 00    	mov    0x1bc20,%ecx
    94bf:	8b 13                	mov    (%ebx),%edx
    94c1:	8b 81 58 02 00 00    	mov    0x258(%ecx),%eax
    94c7:	03 82 50 02 00 00    	add    0x250(%edx),%eax
    94cd:	89 81 58 02 00 00    	mov    %eax,0x258(%ecx)
				current->cstime += (*p)->stime;
    94d3:	8b 0d 20 bc 01 00    	mov    0x1bc20,%ecx
    94d9:	8b 13                	mov    (%ebx),%edx
    94db:	8b 81 5c 02 00 00    	mov    0x25c(%ecx),%eax
    94e1:	03 82 54 02 00 00    	add    0x254(%edx),%eax
    94e7:	89 81 5c 02 00 00    	mov    %eax,0x25c(%ecx)
				flag = (*p)->pid;
    94ed:	8b 03                	mov    (%ebx),%eax
    94ef:	8b b0 2c 02 00 00    	mov    0x22c(%eax),%esi
				code = (*p)->exit_code;
    94f5:	8b 98 14 02 00 00    	mov    0x214(%eax),%ebx
	if (!p)
    94fb:	85 c0                	test   %eax,%eax
    94fd:	74 25                	je     9524 <sys_waitpid+0x15e>
	for (i=1 ; i<NR_TASKS ; i++)
    94ff:	b9 01 00 00 00       	mov    $0x1,%ecx
    9504:	ba 40 bc 01 00       	mov    $0x1bc40,%edx
		if (task[i]==p) {
    9509:	39 04 8a             	cmp    %eax,(%edx,%ecx,4)
    950c:	74 91                	je     949f <sys_waitpid+0xd9>
	for (i=1 ; i<NR_TASKS ; i++)
    950e:	41                   	inc    %ecx
    950f:	83 f9 3f             	cmp    $0x3f,%ecx
    9512:	7e f5                	jle    9509 <sys_waitpid+0x143>
	panic("trying to release non-existent task");
    9514:	83 ec 0c             	sub    $0xc,%esp
    9517:	68 50 8b 01 00       	push   $0x18b50
    951c:	e8 f8 ed ff ff       	call   8319 <panic>
    9521:	83 c4 10             	add    $0x10,%esp
    9524:	8b 44 24 24          	mov    0x24(%esp),%eax
    9528:	64 89 18             	mov    %ebx,%fs:(%eax)
				release(*p);
				put_fs_long(code,stat_addr);
				return flag;
    952b:	89 f0                	mov    %esi,%eax
    952d:	e9 aa 00 00 00       	jmp    95dc <sys_waitpid+0x216>
			default:
				flag=1;
    9532:	be 01 00 00 00       	mov    $0x1,%esi
	for(p = &LAST_TASK ; p > &FIRST_TASK ; --p) {
    9537:	83 eb 04             	sub    $0x4,%ebx
    953a:	81 fb 40 bc 01 00    	cmp    $0x1bc40,%ebx
    9540:	0f 87 b3 fe ff ff    	ja     93f9 <sys_waitpid+0x33>
				continue;
		}
	}
	if (flag) {
    9546:	85 f6                	test   %esi,%esi
    9548:	0f 84 89 00 00 00    	je     95d7 <sys_waitpid+0x211>
		if (options & WNOHANG)
    954e:	f7 c5 01 00 00 00    	test   $0x1,%ebp
    9554:	74 07                	je     955d <sys_waitpid+0x197>
			return 0;
    9556:	b8 00 00 00 00       	mov    $0x0,%eax
    955b:	eb 7f                	jmp    95dc <sys_waitpid+0x216>

		current->state=TASK_INTERRUPTIBLE;
    955d:	a1 20 bc 01 00       	mov    0x1bc20,%eax
    9562:	c7 00 01 00 00 00    	movl   $0x1,(%eax)

		fprintk(3, "%ld\t%c\t%ld\n", current->pid, 'W', jiffies);
    9568:	83 ec 0c             	sub    $0xc,%esp
    956b:	a1 c0 e9 01 00       	mov    0x1e9c0,%eax
    9570:	50                   	push   %eax
    9571:	6a 57                	push   $0x57
    9573:	a1 20 bc 01 00       	mov    0x1bc20,%eax
    9578:	ff b0 2c 02 00 00    	pushl  0x22c(%eax)
    957e:	68 cb 87 01 00       	push   $0x187cb
    9583:	6a 03                	push   $0x3
    9585:	e8 04 ee ff ff       	call   838e <fprintk>
		schedule();
    958a:	83 c4 20             	add    $0x20,%esp
    958d:	e8 e9 d4 ff ff       	call   6a7b <schedule>
		fprintk(3, "%ld\t%c\t%ld\n", current->pid, 'R', jiffies);
    9592:	83 ec 0c             	sub    $0xc,%esp
    9595:	a1 c0 e9 01 00       	mov    0x1e9c0,%eax
    959a:	50                   	push   %eax
    959b:	6a 52                	push   $0x52
    959d:	a1 20 bc 01 00       	mov    0x1bc20,%eax
    95a2:	ff b0 2c 02 00 00    	pushl  0x22c(%eax)
    95a8:	68 cb 87 01 00       	push   $0x187cb
    95ad:	6a 03                	push   $0x3
    95af:	e8 da ed ff ff       	call   838e <fprintk>


		if (!(current->signal &= ~(1<<(SIGCHLD-1))))
    95b4:	a1 20 bc 01 00       	mov    0x1bc20,%eax
    95b9:	8b 50 0c             	mov    0xc(%eax),%edx
    95bc:	81 e2 ff ff fe ff    	and    $0xfffeffff,%edx
    95c2:	89 50 0c             	mov    %edx,0xc(%eax)
    95c5:	83 c4 20             	add    $0x20,%esp
    95c8:	85 d2                	test   %edx,%edx
    95ca:	0f 84 13 fe ff ff    	je     93e3 <sys_waitpid+0x1d>
			goto repeat;
		else
			return -EINTR;
    95d0:	b8 fc ff ff ff       	mov    $0xfffffffc,%eax
    95d5:	eb 05                	jmp    95dc <sys_waitpid+0x216>
	}
	return -ECHILD;
    95d7:	b8 f6 ff ff ff       	mov    $0xfffffff6,%eax
}
    95dc:	83 c4 0c             	add    $0xc,%esp
    95df:	5b                   	pop    %ebx
    95e0:	5e                   	pop    %esi
    95e1:	5f                   	pop    %edi
    95e2:	5d                   	pop    %ebp
    95e3:	c3                   	ret    

000095e4 <sys_sgetmask>:

volatile void do_exit(int error_code);

int sys_sgetmask()
{
	return current->blocked;
    95e4:	a1 20 bc 01 00       	mov    0x1bc20,%eax
    95e9:	8b 80 10 02 00 00    	mov    0x210(%eax),%eax
}
    95ef:	c3                   	ret    

000095f0 <sys_ssetmask>:

int sys_ssetmask(int newmask)
{
	int old=current->blocked;
    95f0:	8b 15 20 bc 01 00    	mov    0x1bc20,%edx
    95f6:	8b 82 10 02 00 00    	mov    0x210(%edx),%eax

	current->blocked = newmask & ~(1<<(SIGKILL-1));
    95fc:	8b 4c 24 04          	mov    0x4(%esp),%ecx
    9600:	80 e5 fe             	and    $0xfe,%ch
    9603:	89 8a 10 02 00 00    	mov    %ecx,0x210(%edx)
	return old;
}
    9609:	c3                   	ret    

0000960a <sys_signal>:
	for (i=0 ; i< sizeof(struct sigaction) ; i++)
		*(to++) = get_fs_byte(from++);
}

int sys_signal(int signum, long handler, long restorer)
{
    960a:	53                   	push   %ebx
    960b:	83 ec 18             	sub    $0x18,%esp
    960e:	8b 54 24 20          	mov    0x20(%esp),%edx
    9612:	8b 5c 24 24          	mov    0x24(%esp),%ebx
	struct sigaction tmp;

	if (signum<1 || signum>32 || signum==SIGKILL)
    9616:	8d 42 ff             	lea    -0x1(%edx),%eax
    9619:	83 f8 1f             	cmp    $0x1f,%eax
    961c:	77 05                	ja     9623 <sys_signal+0x19>
    961e:	83 fa 09             	cmp    $0x9,%edx
    9621:	75 07                	jne    962a <sys_signal+0x20>
		return -1;
    9623:	b8 ff ff ff ff       	mov    $0xffffffff,%eax
    9628:	eb 47                	jmp    9671 <sys_signal+0x67>
	tmp.sa_handler = (void (*)(int)) handler;
    962a:	89 1c 24             	mov    %ebx,(%esp)
	tmp.sa_mask = 0;
    962d:	c7 44 24 04 00 00 00 	movl   $0x0,0x4(%esp)
    9634:	00 
	tmp.sa_flags = SA_ONESHOT | SA_NOMASK;
    9635:	c7 44 24 08 00 00 00 	movl   $0xc0000000,0x8(%esp)
    963c:	c0 
	tmp.sa_restorer = (void (*)(void)) restorer;
    963d:	8b 44 24 28          	mov    0x28(%esp),%eax
    9641:	89 44 24 0c          	mov    %eax,0xc(%esp)
	handler = (long) current->sigaction[signum-1].sa_handler;
    9645:	8b 0d 20 bc 01 00    	mov    0x1bc20,%ecx
    964b:	c1 e2 04             	shl    $0x4,%edx
    964e:	8b 1c 0a             	mov    (%edx,%ecx,1),%ebx
	current->sigaction[signum-1] = tmp;
    9651:	8b 04 24             	mov    (%esp),%eax
    9654:	89 04 0a             	mov    %eax,(%edx,%ecx,1)
    9657:	8b 44 24 04          	mov    0x4(%esp),%eax
    965b:	89 44 0a 04          	mov    %eax,0x4(%edx,%ecx,1)
    965f:	8b 44 24 08          	mov    0x8(%esp),%eax
    9663:	89 44 0a 08          	mov    %eax,0x8(%edx,%ecx,1)
    9667:	8b 44 24 0c          	mov    0xc(%esp),%eax
    966b:	89 44 0a 0c          	mov    %eax,0xc(%edx,%ecx,1)
	return handler;
    966f:	89 d8                	mov    %ebx,%eax
}
    9671:	83 c4 18             	add    $0x18,%esp
    9674:	5b                   	pop    %ebx
    9675:	c3                   	ret    

00009676 <sys_sigaction>:

int sys_sigaction(int signum, const struct sigaction * action,
	struct sigaction * oldaction)
{
    9676:	55                   	push   %ebp
    9677:	57                   	push   %edi
    9678:	56                   	push   %esi
    9679:	53                   	push   %ebx
    967a:	83 ec 1c             	sub    $0x1c,%esp
    967d:	8b 7c 24 30          	mov    0x30(%esp),%edi
    9681:	8b 6c 24 38          	mov    0x38(%esp),%ebp
	struct sigaction tmp;

	if (signum<1 || signum>32 || signum==SIGKILL)
    9685:	8d 47 ff             	lea    -0x1(%edi),%eax
    9688:	83 f8 1f             	cmp    $0x1f,%eax
    968b:	77 05                	ja     9692 <sys_sigaction+0x1c>
    968d:	83 ff 09             	cmp    $0x9,%edi
    9690:	75 0a                	jne    969c <sys_sigaction+0x26>
		return -1;
    9692:	b8 ff ff ff ff       	mov    $0xffffffff,%eax
    9697:	e9 9f 00 00 00       	jmp    973b <sys_sigaction+0xc5>
	tmp = current->sigaction[signum-1];
    969c:	8b 0d 20 bc 01 00    	mov    0x1bc20,%ecx
    96a2:	89 fa                	mov    %edi,%edx
    96a4:	c1 e2 04             	shl    $0x4,%edx
    96a7:	8b 04 0a             	mov    (%edx,%ecx,1),%eax
    96aa:	89 04 24             	mov    %eax,(%esp)
    96ad:	8b 44 0a 04          	mov    0x4(%edx,%ecx,1),%eax
    96b1:	89 44 24 04          	mov    %eax,0x4(%esp)
    96b5:	8b 44 0a 08          	mov    0x8(%edx,%ecx,1),%eax
    96b9:	89 44 24 08          	mov    %eax,0x8(%esp)
    96bd:	8b 44 0a 0c          	mov    0xc(%edx,%ecx,1),%eax
    96c1:	89 44 24 0c          	mov    %eax,0xc(%esp)
{
    96c5:	8b 5c 24 34          	mov    0x34(%esp),%ebx
    96c9:	8d 0c 0a             	lea    (%edx,%ecx,1),%ecx
    96cc:	be 0f 00 00 00       	mov    $0xf,%esi
{
    96d1:	89 d8                	mov    %ebx,%eax
    96d3:	43                   	inc    %ebx
    96d4:	89 ca                	mov    %ecx,%edx
    96d6:	41                   	inc    %ecx
	__asm__ ("movb %%fs:%1,%0":"=r" (_v):"m" (*addr));
    96d7:	64 8a 00             	mov    %fs:(%eax),%al
{
    96da:	88 02                	mov    %al,(%edx)
    96dc:	4e                   	dec    %esi
    96dd:	79 f2                	jns    96d1 <sys_sigaction+0x5b>
	get_new((char *) action,
		(char *) (signum-1+current->sigaction));
	if (oldaction)
    96df:	85 ed                	test   %ebp,%ebp
    96e1:	74 21                	je     9704 <sys_sigaction+0x8e>
{
    96e3:	89 e6                	mov    %esp,%esi
    96e5:	89 eb                	mov    %ebp,%ebx
	verify_area(to, sizeof(struct sigaction));
    96e7:	83 ec 08             	sub    $0x8,%esp
    96ea:	6a 10                	push   $0x10
    96ec:	55                   	push   %ebp
    96ed:	e8 7a e7 ff ff       	call   7e6c <verify_area>
    96f2:	83 c4 10             	add    $0x10,%esp
    96f5:	ba 0f 00 00 00       	mov    $0xf,%edx
{
    96fa:	8a 06                	mov    (%esi),%al
__asm__ ("movb %0,%%fs:%1"::"r" (val),"m" (*addr));
    96fc:	64 88 03             	mov    %al,%fs:(%ebx)
		from++;
    96ff:	46                   	inc    %esi
		to++;
    9700:	43                   	inc    %ebx
    9701:	4a                   	dec    %edx
    9702:	79 f6                	jns    96fa <sys_sigaction+0x84>
		save_old((char *) &tmp,(char *) oldaction);
	if (current->sigaction[signum-1].sa_flags & SA_NOMASK)
    9704:	89 f8                	mov    %edi,%eax
    9706:	c1 e0 04             	shl    $0x4,%eax
    9709:	03 05 20 bc 01 00    	add    0x1bc20,%eax
    970f:	f6 40 0b 40          	testb  $0x40,0xb(%eax)
    9713:	74 09                	je     971e <sys_sigaction+0xa8>
		current->sigaction[signum-1].sa_mask = 0;
    9715:	c7 40 04 00 00 00 00 	movl   $0x0,0x4(%eax)
    971c:	eb 18                	jmp    9736 <sys_sigaction+0xc0>
	else
		current->sigaction[signum-1].sa_mask |= (1<<(signum-1));
    971e:	89 f8                	mov    %edi,%eax
    9720:	c1 e0 04             	shl    $0x4,%eax
    9723:	03 05 20 bc 01 00    	add    0x1bc20,%eax
    9729:	8d 4f ff             	lea    -0x1(%edi),%ecx
    972c:	ba 01 00 00 00       	mov    $0x1,%edx
    9731:	d3 e2                	shl    %cl,%edx
    9733:	09 50 04             	or     %edx,0x4(%eax)
	return 0;
    9736:	b8 00 00 00 00       	mov    $0x0,%eax
}
    973b:	83 c4 1c             	add    $0x1c,%esp
    973e:	5b                   	pop    %ebx
    973f:	5e                   	pop    %esi
    9740:	5f                   	pop    %edi
    9741:	5d                   	pop    %ebp
    9742:	c3                   	ret    

00009743 <do_signal>:

void do_signal(long signr,long eax, long ebx, long ecx, long edx,
	long fs, long es, long ds,
	long eip, long cs, long eflags,
	unsigned long * esp, long ss)
{
    9743:	55                   	push   %ebp
    9744:	57                   	push   %edi
    9745:	56                   	push   %esi
    9746:	53                   	push   %ebx
    9747:	83 ec 0c             	sub    $0xc,%esp
    974a:	8b 7c 24 20          	mov    0x20(%esp),%edi
    974e:	8b 74 24 4c          	mov    0x4c(%esp),%esi
	unsigned long sa_handler;
	long old_eip=eip;
    9752:	8b 6c 24 40          	mov    0x40(%esp),%ebp
	struct sigaction * sa = current->sigaction + signr - 1;
    9756:	89 f8                	mov    %edi,%eax
    9758:	c1 e0 04             	shl    $0x4,%eax
    975b:	89 c3                	mov    %eax,%ebx
    975d:	03 1d 20 bc 01 00    	add    0x1bc20,%ebx
	int longs;
	unsigned long * tmp_esp;

	sa_handler = (unsigned long) sa->sa_handler;
    9763:	8b 03                	mov    (%ebx),%eax
	if (sa_handler==1)
    9765:	83 f8 01             	cmp    $0x1,%eax
    9768:	0f 84 c5 00 00 00    	je     9833 <do_signal+0xf0>
		return;
	if (!sa_handler) {
    976e:	85 c0                	test   %eax,%eax
    9770:	75 1c                	jne    978e <do_signal+0x4b>
		if (signr==SIGCHLD)
    9772:	83 ff 11             	cmp    $0x11,%edi
    9775:	0f 84 b8 00 00 00    	je     9833 <do_signal+0xf0>
			return;
		else
			do_exit(1<<(signr-1));
    977b:	83 ec 0c             	sub    $0xc,%esp
    977e:	8d 4f ff             	lea    -0x1(%edi),%ecx
    9781:	b0 01                	mov    $0x1,%al
    9783:	d3 e0                	shl    %cl,%eax
    9785:	50                   	push   %eax
    9786:	e8 50 f9 ff ff       	call   90db <do_exit>
    978b:	83 c4 10             	add    $0x10,%esp
	}
